EXPORTS

	??0?$MaybeStackArray@D$0CI@@icu_62@@AEAA@AEBV01@@Z	@1
	??0?$MaybeStackArray@D$0CI@@icu_62@@QEAA@$$QEAV01@@Z	@2
	??0?$MaybeStackArray@D$0CI@@icu_62@@QEAA@H@Z	@3
	??0?$MaybeStackArray@D$0CI@@icu_62@@QEAA@XZ	@4
	??0Appendable@icu_62@@QEAA@AEBV01@@Z	@5
	??0Appendable@icu_62@@QEAA@XZ	@6
	??0BreakIterator@icu_62@@IEAA@AEBV01@@Z	@7
	??0BreakIterator@icu_62@@IEAA@AEBVLocale@1@0@Z	@8
	??0BreakIterator@icu_62@@IEAA@XZ	@9
	??0ByteSink@icu_62@@QEAA@XZ	@10
	??0BytesDictionaryMatcher@icu_62@@QEAA@AEBV01@@Z	@11
	??0BytesDictionaryMatcher@icu_62@@QEAA@PEBDHPEAUUDataMemory@@@Z	@12
	??0BytesTrie@icu_62@@AEAA@PEAXPEBX@Z	@13
	??0BytesTrie@icu_62@@QEAA@AEBV01@@Z	@14
	??0BytesTrie@icu_62@@QEAA@PEBX@Z	@15
	??0BytesTrieBuilder@icu_62@@QEAA@AEAW4UErrorCode@@@Z	@16
	??0CStr@icu_62@@QEAA@AEBVUnicodeString@1@@Z	@17
	??0CacheKeyBase@icu_62@@QEAA@AEBV01@@Z	@18
	??0CacheKeyBase@icu_62@@QEAA@XZ	@19
	??0CanonicalIterator@icu_62@@QEAA@AEBVUnicodeString@1@AEAW4UErrorCode@@@Z	@20
	??0Char16Ptr@icu_62@@QEAA@$$T@Z	@21
	??0Char16Ptr@icu_62@@QEAA@PEAG@Z	@22
	??0Char16Ptr@icu_62@@QEAA@PEA_S@Z	@23
	??0Char16Ptr@icu_62@@QEAA@PEA_W@Z	@24
	??0CharString@icu_62@@QEAA@$$QEAV01@@Z	@25
	??0CharString@icu_62@@QEAA@AEBV01@AEAW4UErrorCode@@@Z	@26
	??0CharString@icu_62@@QEAA@PEBDHAEAW4UErrorCode@@@Z	@27
	??0CharString@icu_62@@QEAA@VStringPiece@1@AEAW4UErrorCode@@@Z	@28
	??0CharString@icu_62@@QEAA@XZ	@29
	??0CharacterIterator@icu_62@@IEAA@AEBV01@@Z	@30
	??0CharacterIterator@icu_62@@IEAA@H@Z	@31
	??0CharacterIterator@icu_62@@IEAA@HH@Z	@32
	??0CharacterIterator@icu_62@@IEAA@HHHH@Z	@33
	??0CharacterIterator@icu_62@@IEAA@XZ	@34
	??0CheckedArrayByteSink@icu_62@@QEAA@PEADH@Z	@35
	??0ConstChar16Ptr@icu_62@@QEAA@$$T@Z	@36
	??0ConstChar16Ptr@icu_62@@QEAA@PEBG@Z	@37
	??0ConstChar16Ptr@icu_62@@QEAA@PEB_S@Z	@38
	??0ConstChar16Ptr@icu_62@@QEAA@PEB_W@Z	@39
	??0DateInterval@icu_62@@QEAA@AEBV01@@Z	@40
	??0DateInterval@icu_62@@QEAA@NN@Z	@41
	??0DictionaryMatcher@icu_62@@QEAA@AEBV01@@Z	@42
	??0DictionaryMatcher@icu_62@@QEAA@XZ	@43
	??0Edits@icu_62@@QEAA@$$QEAV01@@Z	@44
	??0Edits@icu_62@@QEAA@AEBV01@@Z	@45
	??0Edits@icu_62@@QEAA@XZ	@46
	??0ErrorCode@icu_62@@QEAA@AEBV01@@Z	@47
	??0ErrorCode@icu_62@@QEAA@XZ	@48
	??0EventListener@icu_62@@QEAA@AEBV01@@Z	@49
	??0EventListener@icu_62@@QEAA@XZ	@50
	??0FilteredBreakIteratorBuilder@icu_62@@IEAA@XZ	@51
	??0FilteredBreakIteratorBuilder@icu_62@@QEAA@AEBV01@@Z	@52
	??0FilteredNormalizer2@icu_62@@QEAA@AEBV01@@Z	@53
	??0FilteredNormalizer2@icu_62@@QEAA@AEBVNormalizer2@1@AEBVUnicodeSet@1@@Z	@54
	??0ForwardCharacterIterator@icu_62@@IEAA@AEBV01@@Z	@55
	??0ForwardCharacterIterator@icu_62@@IEAA@XZ	@56
	??0FullCaseFoldingIterator@icu_62@@QEAA@XZ	@57
	??0Hashtable@icu_62@@QEAA@AEAW4UErrorCode@@@Z	@58
	??0Hashtable@icu_62@@QEAA@CAEAW4UErrorCode@@@Z	@59
	??0Hashtable@icu_62@@QEAA@CHAEAW4UErrorCode@@@Z	@60
	??0Hashtable@icu_62@@QEAA@P6ACTUElement@@0@Z1AEAW4UErrorCode@@@Z	@61
	??0Hashtable@icu_62@@QEAA@XZ	@62
	??0ICULocaleService@icu_62@@QEAA@AEBV01@@Z	@63
	??0ICULocaleService@icu_62@@QEAA@AEBVUnicodeString@1@@Z	@64
	??0ICULocaleService@icu_62@@QEAA@XZ	@65
	??0ICUNotifier@icu_62@@QEAA@AEBV01@@Z	@66
	??0ICUNotifier@icu_62@@QEAA@XZ	@67
	??0ICUResourceBundleFactory@icu_62@@QEAA@AEBV01@@Z	@68
	??0ICUResourceBundleFactory@icu_62@@QEAA@AEBVUnicodeString@1@@Z	@69
	??0ICUResourceBundleFactory@icu_62@@QEAA@XZ	@70
	??0ICUService@icu_62@@QEAA@AEBV01@@Z	@71
	??0ICUService@icu_62@@QEAA@AEBVUnicodeString@1@@Z	@72
	??0ICUService@icu_62@@QEAA@XZ	@73
	??0ICUServiceFactory@icu_62@@QEAA@AEBV01@@Z	@74
	??0ICUServiceFactory@icu_62@@QEAA@XZ	@75
	??0ICUServiceKey@icu_62@@QEAA@AEBV01@@Z	@76
	??0ICUServiceKey@icu_62@@QEAA@AEBVUnicodeString@1@@Z	@77
	??0IDNA@icu_62@@QEAA@AEBV01@@Z	@78
	??0IDNA@icu_62@@QEAA@XZ	@79
	??0IDNAInfo@icu_62@@QEAA@XZ	@80
	??0Iterator@BytesTrie@icu_62@@QEAA@AEBV12@HAEAW4UErrorCode@@@Z	@81
	??0Iterator@BytesTrie@icu_62@@QEAA@PEBXHAEAW4UErrorCode@@@Z	@82
	??0Iterator@Edits@icu_62@@AEAA@PEBGHCC@Z	@83
	??0Iterator@Edits@icu_62@@QEAA@XZ	@84
	??0Iterator@UCharsTrie@icu_62@@QEAA@AEBV012@@Z	@85
	??0Iterator@UCharsTrie@icu_62@@QEAA@AEBV12@HAEAW4UErrorCode@@@Z	@86
	??0Iterator@UCharsTrie@icu_62@@QEAA@VConstChar16Ptr@2@HAEAW4UErrorCode@@@Z	@87
	??0ListFormatter@icu_62@@QEAA@AEBUListFormatData@1@AEAW4UErrorCode@@@Z	@88
	??0ListFormatter@icu_62@@QEAA@AEBV01@@Z	@89
	??0ListFormatter@icu_62@@QEAA@PEBUListFormatInternal@1@@Z	@90
	??0Locale@icu_62@@AEAA@W4ELocaleType@01@@Z	@91
	??0Locale@icu_62@@QEAA@AEBV01@@Z	@92
	??0Locale@icu_62@@QEAA@PEBD000@Z	@93
	??0Locale@icu_62@@QEAA@XZ	@94
	??0LocaleBased@icu_62@@QEAA@PEAD0@Z	@95
	??0LocaleBased@icu_62@@QEAA@PEBD0@Z	@96
	??0LocaleDisplayNames@icu_62@@QEAA@AEBV01@@Z	@97
	??0LocaleDisplayNames@icu_62@@QEAA@XZ	@98
	??0LocaleKey@icu_62@@IEAA@AEBVUnicodeString@1@0PEBV21@H@Z	@99
	??0LocaleKey@icu_62@@QEAA@AEBV01@@Z	@100
	??0LocaleKeyFactory@icu_62@@IEAA@H@Z	@101
	??0LocaleKeyFactory@icu_62@@IEAA@HAEBVUnicodeString@1@@Z	@102
	??0LocaleKeyFactory@icu_62@@QEAA@AEBV01@@Z	@103
	??0MessagePattern@icu_62@@QEAA@AEAW4UErrorCode@@@Z	@104
	??0MessagePattern@icu_62@@QEAA@AEBV01@@Z	@105
	??0MessagePattern@icu_62@@QEAA@AEBVUnicodeString@1@PEAUUParseError@@AEAW4UErrorCode@@@Z	@106
	??0MessagePattern@icu_62@@QEAA@W4UMessagePatternApostropheMode@@AEAW4UErrorCode@@@Z	@107
	??0Mutex@icu_62@@QEAA@PEAUUMutex@@@Z	@108
	??0Normalizer2@icu_62@@QEAA@AEBV01@@Z	@109
	??0Normalizer2@icu_62@@QEAA@XZ	@110
	??0Normalizer2Impl@icu_62@@QEAA@XZ	@111
	??0Normalizer@icu_62@@QEAA@AEBV01@@Z	@112
	??0Normalizer@icu_62@@QEAA@AEBVCharacterIterator@1@W4UNormalizationMode@@@Z	@113
	??0Normalizer@icu_62@@QEAA@AEBVUnicodeString@1@W4UNormalizationMode@@@Z	@114
	??0Normalizer@icu_62@@QEAA@VConstChar16Ptr@1@HW4UNormalizationMode@@@Z	@115
	??0ParsePosition@icu_62@@QEAA@AEBV01@@Z	@116
	??0ParsePosition@icu_62@@QEAA@H@Z	@117
	??0ParsePosition@icu_62@@QEAA@XZ	@118
	??0ReorderingBuffer@icu_62@@QEAA@AEBVNormalizer2Impl@1@AEAVUnicodeString@1@@Z	@119
	??0ReorderingBuffer@icu_62@@QEAA@AEBVNormalizer2Impl@1@AEAVUnicodeString@1@AEAW4UErrorCode@@@Z	@120
	??0Replaceable@icu_62@@IEAA@XZ	@121
	??0Replaceable@icu_62@@QEAA@AEBV01@@Z	@122
	??0ResourceArray@icu_62@@QEAA@PEBGPEBIH@Z	@123
	??0ResourceArray@icu_62@@QEAA@XZ	@124
	??0ResourceBundle@icu_62@@QEAA@AEAW4UErrorCode@@@Z	@125
	??0ResourceBundle@icu_62@@QEAA@AEBV01@@Z	@126
	??0ResourceBundle@icu_62@@QEAA@AEBVUnicodeString@1@AEAW4UErrorCode@@@Z	@127
	??0ResourceBundle@icu_62@@QEAA@AEBVUnicodeString@1@AEBVLocale@1@AEAW4UErrorCode@@@Z	@128
	??0ResourceBundle@icu_62@@QEAA@PEAUUResourceBundle@@AEAW4UErrorCode@@@Z	@129
	??0ResourceBundle@icu_62@@QEAA@PEBDAEBVLocale@1@AEAW4UErrorCode@@@Z	@130
	??0ResourceSink@icu_62@@QEAA@XZ	@131
	??0ResourceTable@icu_62@@QEAA@PEBGPEBH0PEBIH@Z	@132
	??0ResourceTable@icu_62@@QEAA@XZ	@133
	??0ResourceValue@icu_62@@IEAA@XZ	@134
	??0RuleBasedBreakIterator@icu_62@@AEAA@PEAURBBIDataHeader@1@AEAW4UErrorCode@@@Z	@135
	??0RuleBasedBreakIterator@icu_62@@QEAA@AEBV01@@Z	@136
	??0RuleBasedBreakIterator@icu_62@@QEAA@AEBVUnicodeString@1@AEAUUParseError@@AEAW4UErrorCode@@@Z	@137
	??0RuleBasedBreakIterator@icu_62@@QEAA@PEAUUDataMemory@@AEAW4UErrorCode@@@Z	@138
	??0RuleBasedBreakIterator@icu_62@@QEAA@PEBEIAEAW4UErrorCode@@@Z	@139
	??0RuleBasedBreakIterator@icu_62@@QEAA@XZ	@140
	??0ServiceListener@icu_62@@QEAA@AEBV01@@Z	@141
	??0ServiceListener@icu_62@@QEAA@XZ	@142
	??0SharedObject@icu_62@@QEAA@AEBV01@@Z	@143
	??0SharedObject@icu_62@@QEAA@XZ	@144
	??0SimpleFactory@icu_62@@QEAA@AEBV01@@Z	@145
	??0SimpleFactory@icu_62@@QEAA@PEAVUObject@1@AEBVUnicodeString@1@C@Z	@146
	??0SimpleFilteredBreakIteratorBuilder@icu_62@@QEAA@AEAW4UErrorCode@@@Z	@147
	??0SimpleFilteredBreakIteratorBuilder@icu_62@@QEAA@AEBVLocale@1@AEAW4UErrorCode@@@Z	@148
	??0SimpleFormatter@icu_62@@QEAA@AEBV01@@Z	@149
	??0SimpleFormatter@icu_62@@QEAA@AEBVUnicodeString@1@AEAW4UErrorCode@@@Z	@150
	??0SimpleFormatter@icu_62@@QEAA@AEBVUnicodeString@1@HHAEAW4UErrorCode@@@Z	@151
	??0SimpleFormatter@icu_62@@QEAA@XZ	@152
	??0SimpleLocaleKeyFactory@icu_62@@QEAA@AEBV01@@Z	@153
	??0SimpleLocaleKeyFactory@icu_62@@QEAA@PEAVUObject@1@AEBVLocale@1@HH@Z	@154
	??0SimpleLocaleKeyFactory@icu_62@@QEAA@PEAVUObject@1@AEBVUnicodeString@1@HH@Z	@155
	??0StringCharacterIterator@icu_62@@IEAA@XZ	@156
	??0StringCharacterIterator@icu_62@@QEAA@AEBV01@@Z	@157
	??0StringCharacterIterator@icu_62@@QEAA@AEBVUnicodeString@1@@Z	@158
	??0StringCharacterIterator@icu_62@@QEAA@AEBVUnicodeString@1@H@Z	@159
	??0StringCharacterIterator@icu_62@@QEAA@AEBVUnicodeString@1@HHH@Z	@160
	??0StringEnumeration@icu_62@@IEAA@XZ	@161
	??0StringEnumeration@icu_62@@QEAA@AEBV01@@Z	@162
	??0StringPair@icu_62@@AEAA@AEBVUnicodeString@1@0@Z	@163
	??0StringPair@icu_62@@QEAA@$$QEAV01@@Z	@164
	??0StringPair@icu_62@@QEAA@AEBV01@@Z	@165
	??0StringPiece@icu_62@@QEAA@AEBV01@H@Z	@166
	??0StringPiece@icu_62@@QEAA@AEBV01@HH@Z	@167
	??0StringPiece@icu_62@@QEAA@AEBV?$basic_string@DU?$char_traits@D@std@@V?$allocator@D@2@@std@@@Z	@168
	??0StringPiece@icu_62@@QEAA@PEBD@Z	@169
	??0StringPiece@icu_62@@QEAA@PEBDH@Z	@170
	??0StringPiece@icu_62@@QEAA@XZ	@171
	??0StringTrieBuilder@icu_62@@IEAA@XZ	@172
	??0StringTrieBuilder@icu_62@@QEAA@AEBV01@@Z	@173
	??0SymbolTable@icu_62@@QEAA@AEBV01@@Z	@174
	??0SymbolTable@icu_62@@QEAA@XZ	@175
	??0UCharCharacterIterator@icu_62@@IEAA@XZ	@176
	??0UCharCharacterIterator@icu_62@@QEAA@AEBV01@@Z	@177
	??0UCharCharacterIterator@icu_62@@QEAA@VConstChar16Ptr@1@H@Z	@178
	??0UCharCharacterIterator@icu_62@@QEAA@VConstChar16Ptr@1@HH@Z	@179
	??0UCharCharacterIterator@icu_62@@QEAA@VConstChar16Ptr@1@HHHH@Z	@180
	??0UCharsDictionaryMatcher@icu_62@@QEAA@AEBV01@@Z	@181
	??0UCharsDictionaryMatcher@icu_62@@QEAA@PEB_SPEAUUDataMemory@@@Z	@182
	??0UCharsTrie@icu_62@@AEAA@PEA_SPEB_S@Z	@183
	??0UCharsTrie@icu_62@@QEAA@AEBV01@@Z	@184
	??0UCharsTrie@icu_62@@QEAA@VConstChar16Ptr@1@@Z	@185
	??0UCharsTrieBuilder@icu_62@@QEAA@AEAW4UErrorCode@@@Z	@186
	??0UObject@icu_62@@QEAA@AEBV01@@Z	@187
	??0UObject@icu_62@@QEAA@XZ	@188
	??0UStack@icu_62@@QEAA@AEAW4UErrorCode@@@Z	@189
	??0UStack@icu_62@@QEAA@HAEAW4UErrorCode@@@Z	@190
	??0UStack@icu_62@@QEAA@P6AXPEAX@ZP6ACTUElement@@2@ZAEAW4UErrorCode@@@Z	@191
	??0UStack@icu_62@@QEAA@P6AXPEAX@ZP6ACTUElement@@2@ZHAEAW4UErrorCode@@@Z	@192
	??0UStringEnumeration@icu_62@@QEAA@AEBV01@@Z	@193
	??0UStringEnumeration@icu_62@@QEAA@PEAUUEnumeration@@@Z	@194
	??0UStringSet@icu_62@@QEAA@AEAW4UErrorCode@@@Z	@195
	??0UVector32@icu_62@@QEAA@AEAW4UErrorCode@@@Z	@196
	??0UVector32@icu_62@@QEAA@HAEAW4UErrorCode@@@Z	@197
	??0UVector64@icu_62@@QEAA@AEAW4UErrorCode@@@Z	@198
	??0UVector64@icu_62@@QEAA@HAEAW4UErrorCode@@@Z	@199
	??0UVector@icu_62@@QEAA@AEAW4UErrorCode@@@Z	@200
	??0UVector@icu_62@@QEAA@HAEAW4UErrorCode@@@Z	@201
	??0UVector@icu_62@@QEAA@P6AXPEAX@ZP6ACTUElement@@2@ZAEAW4UErrorCode@@@Z	@202
	??0UVector@icu_62@@QEAA@P6AXPEAX@ZP6ACTUElement@@2@ZHAEAW4UErrorCode@@@Z	@203
	??0UnicodeFilter@icu_62@@QEAA@AEBV01@@Z	@204
	??0UnicodeFilter@icu_62@@QEAA@XZ	@205
	??0UnicodeFunctor@icu_62@@QEAA@AEBV01@@Z	@206
	??0UnicodeFunctor@icu_62@@QEAA@XZ	@207
	??0UnicodeMatcher@icu_62@@QEAA@AEBV01@@Z	@208
	??0UnicodeMatcher@icu_62@@QEAA@XZ	@209
	??0UnicodeSet@icu_62@@AEAA@AEBV01@C@Z	@210
	??0UnicodeSet@icu_62@@QEAA@AEBV01@@Z	@211
	??0UnicodeSet@icu_62@@QEAA@AEBVUnicodeString@1@AEAVParsePosition@1@IPEBVSymbolTable@1@AEAW4UErrorCode@@@Z	@212
	??0UnicodeSet@icu_62@@QEAA@AEBVUnicodeString@1@AEAW4UErrorCode@@@Z	@213
	??0UnicodeSet@icu_62@@QEAA@AEBVUnicodeString@1@IPEBVSymbolTable@1@AEAW4UErrorCode@@@Z	@214
	??0UnicodeSet@icu_62@@QEAA@HH@Z	@215
	??0UnicodeSet@icu_62@@QEAA@QEBGHW4ESerialization@01@AEAW4UErrorCode@@@Z	@216
	??0UnicodeSet@icu_62@@QEAA@XZ	@217
	??0UnicodeSetIterator@icu_62@@QEAA@AEBVUnicodeSet@1@@Z	@218
	??0UnicodeSetIterator@icu_62@@QEAA@XZ	@219
	??0UnicodeString@icu_62@@QEAA@$$QEAV01@@Z	@220
	??0UnicodeString@icu_62@@QEAA@$$T@Z	@221
	??0UnicodeString@icu_62@@QEAA@$$TH@Z	@222
	??0UnicodeString@icu_62@@QEAA@$$THH@Z	@223
	??0UnicodeString@icu_62@@QEAA@AEBV01@@Z	@224
	??0UnicodeString@icu_62@@QEAA@AEBV01@H@Z	@225
	??0UnicodeString@icu_62@@QEAA@AEBV01@HH@Z	@226
	??0UnicodeString@icu_62@@QEAA@CVConstChar16Ptr@1@H@Z	@227
	??0UnicodeString@icu_62@@QEAA@H@Z	@228
	??0UnicodeString@icu_62@@QEAA@HHH@Z	@229
	??0UnicodeString@icu_62@@QEAA@PEAGHH@Z	@230
	??0UnicodeString@icu_62@@QEAA@PEA_SHH@Z	@231
	??0UnicodeString@icu_62@@QEAA@PEA_WHH@Z	@232
	??0UnicodeString@icu_62@@QEAA@PEBD0@Z	@233
	??0UnicodeString@icu_62@@QEAA@PEBD@Z	@234
	??0UnicodeString@icu_62@@QEAA@PEBDH0@Z	@235
	??0UnicodeString@icu_62@@QEAA@PEBDH@Z	@236
	??0UnicodeString@icu_62@@QEAA@PEBDHPEAUUConverter@@AEAW4UErrorCode@@@Z	@237
	??0UnicodeString@icu_62@@QEAA@PEBDHW4EInvariant@01@@Z	@238
	??0UnicodeString@icu_62@@QEAA@PEBG@Z	@239
	??0UnicodeString@icu_62@@QEAA@PEBGH@Z	@240
	??0UnicodeString@icu_62@@QEAA@PEB_S@Z	@241
	??0UnicodeString@icu_62@@QEAA@PEB_SH@Z	@242
	??0UnicodeString@icu_62@@QEAA@PEB_W@Z	@243
	??0UnicodeString@icu_62@@QEAA@PEB_WH@Z	@244
	??0UnicodeString@icu_62@@QEAA@XZ	@245
	??0UnicodeString@icu_62@@QEAA@_S@Z	@246
	??0UnicodeStringAppendable@icu_62@@QEAA@AEAVUnicodeString@1@@Z	@247
	??0UnicodeStringAppendable@icu_62@@QEAA@AEBV01@@Z	@248
	??0UnifiedCache@icu_62@@QEAA@AEAW4UErrorCode@@@Z	@249
	??0UnifiedCacheBase@icu_62@@QEAA@XZ	@250
	??1?$MaybeStackArray@D$0CI@@icu_62@@QEAA@XZ	@251
	??1Appendable@icu_62@@UEAA@XZ	@252
	??1BreakIterator@icu_62@@UEAA@XZ	@253
	??1ByteSink@icu_62@@UEAA@XZ	@254
	??1BytesDictionaryMatcher@icu_62@@UEAA@XZ	@255
	??1BytesTrie@icu_62@@QEAA@XZ	@256
	??1BytesTrieBuilder@icu_62@@UEAA@XZ	@257
	??1CStr@icu_62@@QEAA@XZ	@258
	??1CacheKeyBase@icu_62@@UEAA@XZ	@259
	??1CanonicalIterator@icu_62@@UEAA@XZ	@260
	??1Char16Ptr@icu_62@@QEAA@XZ	@261
	??1CharString@icu_62@@QEAA@XZ	@262
	??1CharacterIterator@icu_62@@UEAA@XZ	@263
	??1CheckedArrayByteSink@icu_62@@UEAA@XZ	@264
	??1ConstChar16Ptr@icu_62@@QEAA@XZ	@265
	??1DateInterval@icu_62@@UEAA@XZ	@266
	??1DictionaryMatcher@icu_62@@UEAA@XZ	@267
	??1Edits@icu_62@@QEAA@XZ	@268
	??1ErrorCode@icu_62@@UEAA@XZ	@269
	??1EventListener@icu_62@@UEAA@XZ	@270
	??1FilteredBreakIteratorBuilder@icu_62@@UEAA@XZ	@271
	??1FilteredNormalizer2@icu_62@@UEAA@XZ	@272
	??1ForwardCharacterIterator@icu_62@@UEAA@XZ	@273
	??1Hashtable@icu_62@@QEAA@XZ	@274
	??1ICULocaleService@icu_62@@UEAA@XZ	@275
	??1ICUNotifier@icu_62@@UEAA@XZ	@276
	??1ICUResourceBundleFactory@icu_62@@UEAA@XZ	@277
	??1ICUService@icu_62@@UEAA@XZ	@278
	??1ICUServiceFactory@icu_62@@UEAA@XZ	@279
	??1ICUServiceKey@icu_62@@UEAA@XZ	@280
	??1IDNA@icu_62@@UEAA@XZ	@281
	??1Iterator@BytesTrie@icu_62@@QEAA@XZ	@282
	??1Iterator@UCharsTrie@icu_62@@QEAA@XZ	@283
	??1ListFormatter@icu_62@@UEAA@XZ	@284
	??1Locale@icu_62@@UEAA@XZ	@285
	??1LocaleDisplayNames@icu_62@@UEAA@XZ	@286
	??1LocaleKey@icu_62@@UEAA@XZ	@287
	??1LocaleKeyFactory@icu_62@@UEAA@XZ	@288
	??1MessagePattern@icu_62@@UEAA@XZ	@289
	??1Mutex@icu_62@@QEAA@XZ	@290
	??1Normalizer2@icu_62@@UEAA@XZ	@291
	??1Normalizer2Impl@icu_62@@UEAA@XZ	@292
	??1Normalizer@icu_62@@UEAA@XZ	@293
	??1ParsePosition@icu_62@@UEAA@XZ	@294
	??1ReorderingBuffer@icu_62@@QEAA@XZ	@295
	??1Replaceable@icu_62@@UEAA@XZ	@296
	??1ResourceBundle@icu_62@@UEAA@XZ	@297
	??1ResourceSink@icu_62@@UEAA@XZ	@298
	??1ResourceValue@icu_62@@UEAA@XZ	@299
	??1RuleBasedBreakIterator@icu_62@@UEAA@XZ	@300
	??1ServiceListener@icu_62@@UEAA@XZ	@301
	??1SharedObject@icu_62@@UEAA@XZ	@302
	??1SimpleFactory@icu_62@@UEAA@XZ	@303
	??1SimpleFilteredBreakIteratorBuilder@icu_62@@UEAA@XZ	@304
	??1SimpleFormatter@icu_62@@QEAA@XZ	@305
	??1SimpleLocaleKeyFactory@icu_62@@UEAA@XZ	@306
	??1StringCharacterIterator@icu_62@@UEAA@XZ	@307
	??1StringEnumeration@icu_62@@UEAA@XZ	@308
	??1StringPair@icu_62@@QEAA@XZ	@309
	??1StringTrieBuilder@icu_62@@MEAA@XZ	@310
	??1SymbolTable@icu_62@@UEAA@XZ	@311
	??1UCharCharacterIterator@icu_62@@UEAA@XZ	@312
	??1UCharsDictionaryMatcher@icu_62@@UEAA@XZ	@313
	??1UCharsTrie@icu_62@@QEAA@XZ	@314
	??1UCharsTrieBuilder@icu_62@@UEAA@XZ	@315
	??1UObject@icu_62@@UEAA@XZ	@316
	??1UStack@icu_62@@UEAA@XZ	@317
	??1UStringEnumeration@icu_62@@UEAA@XZ	@318
	??1UStringSet@icu_62@@UEAA@XZ	@319
	??1UVector32@icu_62@@UEAA@XZ	@320
	??1UVector64@icu_62@@UEAA@XZ	@321
	??1UVector@icu_62@@UEAA@XZ	@322
	??1UnicodeFilter@icu_62@@UEAA@XZ	@323
	??1UnicodeFunctor@icu_62@@UEAA@XZ	@324
	??1UnicodeMatcher@icu_62@@UEAA@XZ	@325
	??1UnicodeSet@icu_62@@UEAA@XZ	@326
	??1UnicodeSetIterator@icu_62@@UEAA@XZ	@327
	??1UnicodeString@icu_62@@UEAA@XZ	@328
	??1UnicodeStringAppendable@icu_62@@UEAA@XZ	@329
	??1UnifiedCache@icu_62@@UEAA@XZ	@330
	??1UnifiedCacheBase@icu_62@@UEAA@XZ	@331
	??2UMemory@icu_62@@SAPEAX_K@Z	@332
	??2UMemory@icu_62@@SAPEAX_KPEAX@Z	@333
	??2UMemory@icu_62@@SAPEAX_KPEBDH@Z	@334
	??3UMemory@icu_62@@SAXPEAX0@Z	@335
	??3UMemory@icu_62@@SAXPEAX@Z	@336
	??3UMemory@icu_62@@SAXPEAXPEBDH@Z	@337
	??4?$MaybeStackArray@D$0CI@@icu_62@@AEAAXAEBV01@@Z	@338
	??4?$MaybeStackArray@D$0CI@@icu_62@@QEAAAEAV01@$$QEAV01@@Z	@339
	??4Appendable@icu_62@@QEAAAEAV01@AEBV01@@Z	@340
	??4BreakIterator@icu_62@@IEAAAEAV01@AEBV01@@Z	@341
	??4ByteSinkUtil@icu_62@@QEAAAEAV01@$$QEAV01@@Z	@342
	??4ByteSinkUtil@icu_62@@QEAAAEAV01@AEBV01@@Z	@343
	??4BytesDictionaryMatcher@icu_62@@QEAAAEAV01@AEBV01@@Z	@344
	??4CacheKeyBase@icu_62@@QEAAAEAV01@AEBV01@@Z	@345
	??4Char16Ptr@icu_62@@QEAAAEAV01@AEBV01@@Z	@346
	??4CharString@icu_62@@QEAAAEAV01@$$QEAV01@@Z	@347
	??4CharacterIterator@icu_62@@IEAAAEAV01@AEBV01@@Z	@348
	??4ConstChar16Ptr@icu_62@@QEAAAEAV01@AEBV01@@Z	@349
	??4DateInterval@icu_62@@QEAAAEAV01@AEBV01@@Z	@350
	??4DictionaryData@icu_62@@QEAAAEAV01@$$QEAV01@@Z	@351
	??4DictionaryData@icu_62@@QEAAAEAV01@AEBV01@@Z	@352
	??4DictionaryMatcher@icu_62@@QEAAAEAV01@AEBV01@@Z	@353
	??4Edits@icu_62@@QEAAAEAV01@$$QEAV01@@Z	@354
	??4Edits@icu_62@@QEAAAEAV01@AEBV01@@Z	@355
	??4ErrorCode@icu_62@@QEAAAEAV01@AEBV01@@Z	@356
	??4EventListener@icu_62@@QEAAAEAV01@AEBV01@@Z	@357
	??4FilteredBreakIteratorBuilder@icu_62@@QEAAAEAV01@AEBV01@@Z	@358
	??4ForwardCharacterIterator@icu_62@@IEAAAEAV01@AEBV01@@Z	@359
	??4Hangul@icu_62@@QEAAAEAV01@$$QEAV01@@Z	@360
	??4Hangul@icu_62@@QEAAAEAV01@AEBV01@@Z	@361
	??4ICUNotifier@icu_62@@QEAAAEAV01@AEBV01@@Z	@362
	??4ICUServiceFactory@icu_62@@QEAAAEAV01@AEBV01@@Z	@363
	??4ICU_Utility@icu_62@@QEAAAEAV01@$$QEAV01@@Z	@364
	??4ICU_Utility@icu_62@@QEAAAEAV01@AEBV01@@Z	@365
	??4IDNA@icu_62@@QEAAAEAV01@AEBV01@@Z	@366
	??4Iterator@BytesTrie@icu_62@@QEAAAEAV012@AEBV012@@Z	@367
	??4Iterator@Edits@icu_62@@QEAAAEAU012@AEBU012@@Z	@368
	??4Iterator@UCharsTrie@icu_62@@QEAAAEAV012@AEBV012@@Z	@369
	??4ListFormatter@icu_62@@QEAAAEAV01@AEBV01@@Z	@370
	??4Locale@icu_62@@QEAAAEAV01@AEBV01@@Z	@371
	??4LocaleBased@icu_62@@QEAAAEAV01@$$QEAV01@@Z	@372
	??4LocaleBased@icu_62@@QEAAAEAV01@AEBV01@@Z	@373
	??4LocaleDisplayNames@icu_62@@QEAAAEAV01@AEBV01@@Z	@374
	??4LocaleUtility@icu_62@@QEAAAEAV01@$$QEAV01@@Z	@375
	??4LocaleUtility@icu_62@@QEAAAEAV01@AEBV01@@Z	@376
	??4MessageImpl@icu_62@@QEAAAEAV01@$$QEAV01@@Z	@377
	??4MessageImpl@icu_62@@QEAAAEAV01@AEBV01@@Z	@378
	??4MessagePattern@icu_62@@QEAAAEAV01@AEBV01@@Z	@379
	??4Normalizer2@icu_62@@QEAAAEAV01@AEBV01@@Z	@380
	??4Normalizer2Factory@icu_62@@QEAAAEAV01@$$QEAV01@@Z	@381
	??4Normalizer2Factory@icu_62@@QEAAAEAV01@AEBV01@@Z	@382
	??4ParsePosition@icu_62@@QEAAAEAV01@AEBV01@@Z	@383
	??4PatternProps@icu_62@@QEAAAEAV01@$$QEAV01@@Z	@384
	??4PatternProps@icu_62@@QEAAAEAV01@AEBV01@@Z	@385
	??4PluralMapBase@icu_62@@QEAAAEAV01@$$QEAV01@@Z	@386
	??4PluralMapBase@icu_62@@QEAAAEAV01@AEBV01@@Z	@387
	??4Replaceable@icu_62@@QEAAAEAV01@AEBV01@@Z	@388
	??4ResourceArray@icu_62@@QEAAAEAV01@$$QEAV01@@Z	@389
	??4ResourceArray@icu_62@@QEAAAEAV01@AEBV01@@Z	@390
	??4ResourceBundle@icu_62@@QEAAAEAV01@AEBV01@@Z	@391
	??4ResourceTable@icu_62@@QEAAAEAV01@$$QEAV01@@Z	@392
	??4ResourceTable@icu_62@@QEAAAEAV01@AEBV01@@Z	@393
	??4RuleBasedBreakIterator@icu_62@@QEAAAEAV01@AEBV01@@Z	@394
	??4ServiceListener@icu_62@@QEAAAEAV01@AEBV01@@Z	@395
	??4SimpleFormatter@icu_62@@QEAAAEAV01@AEBV01@@Z	@396
	??4StringCharacterIterator@icu_62@@QEAAAEAV01@AEBV01@@Z	@397
	??4StringEnumeration@icu_62@@QEAAAEAV01@AEBV01@@Z	@398
	??4StringPiece@icu_62@@QEAAAEAV01@$$QEAV01@@Z	@399
	??4StringPiece@icu_62@@QEAAAEAV01@AEBV01@@Z	@400
	??4StringTrieBuilder@icu_62@@QEAAAEAV01@AEBV01@@Z	@401
	??4SymbolTable@icu_62@@QEAAAEAV01@AEBV01@@Z	@402
	??4UCharCharacterIterator@icu_62@@QEAAAEAV01@AEBV01@@Z	@403
	??4UCharsDictionaryMatcher@icu_62@@QEAAAEAV01@AEBV01@@Z	@404
	??4UMemory@icu_62@@QEAAAEAV01@$$QEAV01@@Z	@405
	??4UMemory@icu_62@@QEAAAEAV01@AEBV01@@Z	@406
	??4UObject@icu_62@@QEAAAEAV01@AEBV01@@Z	@407
	??4UStringEnumeration@icu_62@@QEAAAEAV01@AEBV01@@Z	@408
	??4UnicodeFilter@icu_62@@QEAAAEAV01@AEBV01@@Z	@409
	??4UnicodeFunctor@icu_62@@QEAAAEAV01@AEBV01@@Z	@410
	??4UnicodeMatcher@icu_62@@QEAAAEAV01@AEBV01@@Z	@411
	??4UnicodeSet@icu_62@@QEAAAEAV01@AEBV01@@Z	@412
	??4UnicodeString@icu_62@@QEAAAEAV01@$$QEAV01@@Z	@413
	??4UnicodeString@icu_62@@QEAAAEAV01@AEBV01@@Z	@414
	??4UnicodeString@icu_62@@QEAAAEAV01@H@Z	@415
	??4UnicodeString@icu_62@@QEAAAEAV01@_S@Z	@416
	??8?$MaybeStackArray@D$0CI@@icu_62@@AEAA_NAEBV01@@Z	@417
	??8DateInterval@icu_62@@UEBACAEBV01@@Z	@418
	??8Locale@icu_62@@QEBACAEBV01@@Z	@419
	??8MessagePattern@icu_62@@QEBACAEBV01@@Z	@420
	??8Normalizer@icu_62@@QEBACAEBV01@@Z	@421
	??8ParsePosition@icu_62@@QEBACAEBV01@@Z	@422
	??8RuleBasedBreakIterator@icu_62@@UEBACAEBVBreakIterator@1@@Z	@423
	??8StringCharacterIterator@icu_62@@UEBACAEBVForwardCharacterIterator@1@@Z	@424
	??8StringEnumeration@icu_62@@UEBACAEBV01@@Z	@425
	??8UCharCharacterIterator@icu_62@@UEBACAEBVForwardCharacterIterator@1@@Z	@426
	??8UVector32@icu_62@@QEAACAEBV01@@Z	@427
	??8UVector64@icu_62@@QEAACAEBV01@@Z	@428
	??8UVector@icu_62@@QEAACAEBV01@@Z	@429
	??8UnicodeSet@icu_62@@UEBACAEBV01@@Z	@430
	??8UnicodeString@icu_62@@QEBACAEBV01@@Z	@431
	??8icu_62@@YACAEBVStringPiece@0@0@Z	@432
	??9?$MaybeStackArray@D$0CI@@icu_62@@AEAA_NAEBV01@@Z	@433
	??9BreakIterator@icu_62@@QEBACAEBV01@@Z	@434
	??9CacheKeyBase@icu_62@@QEBACAEBV01@@Z	@435
	??9DateInterval@icu_62@@QEBACAEBV01@@Z	@436
	??9ForwardCharacterIterator@icu_62@@QEBACAEBV01@@Z	@437
	??9Locale@icu_62@@QEBACAEBV01@@Z	@438
	??9MessagePattern@icu_62@@QEBACAEBV01@@Z	@439
	??9Normalizer@icu_62@@QEBACAEBV01@@Z	@440
	??9ParsePosition@icu_62@@QEBACAEBV01@@Z	@441
	??9RuleBasedBreakIterator@icu_62@@QEBACAEBVBreakIterator@1@@Z	@442
	??9StringEnumeration@icu_62@@UEBACAEBV01@@Z	@443
	??9UVector32@icu_62@@QEAACAEBV01@@Z	@444
	??9UVector64@icu_62@@QEAACAEBV01@@Z	@445
	??9UVector@icu_62@@QEAACAEBV01@@Z	@446
	??9UnicodeSet@icu_62@@QEBACAEBV01@@Z	@447
	??9UnicodeString@icu_62@@QEBACAEBV01@@Z	@448
	??A?$MaybeStackArray@D$0CI@@icu_62@@QEAAAEAD_J@Z	@449
	??A?$MaybeStackArray@D$0CI@@icu_62@@QEBAAEBD_J@Z	@450
	??ACharString@icu_62@@QEBADH@Z	@451
	??AUVector@icu_62@@QEBAPEAXH@Z	@452
	??AUnicodeString@icu_62@@QEBA_SH@Z	@453
	??BChar16Ptr@icu_62@@QEBAPEA_SXZ	@454
	??BConstChar16Ptr@icu_62@@QEBAPEB_SXZ	@455
	??BErrorCode@icu_62@@QEAAAEAW4UErrorCode@@XZ	@456
	??BErrorCode@icu_62@@QEAAPEAW4UErrorCode@@XZ	@457
	??Hicu_62@@YA?AVUnicodeString@0@AEBV10@0@Z	@458
	??MUnicodeString@icu_62@@QEBACAEBV01@@Z	@459
	??NUnicodeString@icu_62@@QEBACAEBV01@@Z	@460
	??OUnicodeString@icu_62@@QEBACAEBV01@@Z	@461
	??PUnicodeString@icu_62@@QEBACAEBV01@@Z	@462
	??RCStr@icu_62@@QEBAPEBDXZ	@463
	??YUnicodeString@icu_62@@QEAAAEAV01@AEBV01@@Z	@464
	??YUnicodeString@icu_62@@QEAAAEAV01@H@Z	@465
	??YUnicodeString@icu_62@@QEAAAEAV01@_S@Z	@466
	??_7Appendable@icu_62@@6B@	@467
	??_7BreakIterator@icu_62@@6B@	@468
	??_7ByteSink@icu_62@@6B@	@469
	??_7BytesDictionaryMatcher@icu_62@@6B@	@470
	??_7BytesTrieBuilder@icu_62@@6B@	@471
	??_7CacheKeyBase@icu_62@@6B@	@472
	??_7CanonicalIterator@icu_62@@6B@	@473
	??_7CharacterIterator@icu_62@@6B@	@474
	??_7CheckedArrayByteSink@icu_62@@6B@	@475
	??_7DateInterval@icu_62@@6B@	@476
	??_7DictionaryMatcher@icu_62@@6B@	@477
	??_7ErrorCode@icu_62@@6B@	@478
	??_7EventListener@icu_62@@6B@	@479
	??_7FilteredBreakIteratorBuilder@icu_62@@6B@	@480
	??_7FilteredNormalizer2@icu_62@@6B@	@481
	??_7ForwardCharacterIterator@icu_62@@6B@	@482
	??_7ICULocaleService@icu_62@@6B@	@483
	??_7ICUNotifier@icu_62@@6B@	@484
	??_7ICUResourceBundleFactory@icu_62@@6B@	@485
	??_7ICUService@icu_62@@6B@	@486
	??_7ICUServiceFactory@icu_62@@6B@	@487
	??_7ICUServiceKey@icu_62@@6B@	@488
	??_7IDNA@icu_62@@6B@	@489
	??_7ListFormatter@icu_62@@6B@	@490
	??_7Locale@icu_62@@6B@	@491
	??_7LocaleDisplayNames@icu_62@@6B@	@492
	??_7LocaleKey@icu_62@@6B@	@493
	??_7LocaleKeyFactory@icu_62@@6B@	@494
	??_7MessagePattern@icu_62@@6B@	@495
	??_7Normalizer2@icu_62@@6B@	@496
	??_7Normalizer2Impl@icu_62@@6B@	@497
	??_7Normalizer@icu_62@@6B@	@498
	??_7ParsePosition@icu_62@@6B@	@499
	??_7Replaceable@icu_62@@6B@	@500
	??_7ResourceBundle@icu_62@@6B@	@501
	??_7ResourceSink@icu_62@@6B@	@502
	??_7ResourceValue@icu_62@@6B@	@503
	??_7RuleBasedBreakIterator@icu_62@@6B@	@504
	??_7ServiceListener@icu_62@@6B@	@505
	??_7SharedObject@icu_62@@6B@	@506
	??_7SimpleFactory@icu_62@@6B@	@507
	??_7SimpleFilteredBreakIteratorBuilder@icu_62@@6B@	@508
	??_7SimpleLocaleKeyFactory@icu_62@@6B@	@509
	??_7StringCharacterIterator@icu_62@@6B@	@510
	??_7StringEnumeration@icu_62@@6B@	@511
	??_7StringTrieBuilder@icu_62@@6B@	@512
	??_7SymbolTable@icu_62@@6B@	@513
	??_7UCharCharacterIterator@icu_62@@6B@	@514
	??_7UCharsDictionaryMatcher@icu_62@@6B@	@515
	??_7UCharsTrieBuilder@icu_62@@6B@	@516
	??_7UObject@icu_62@@6B@	@517
	??_7UStack@icu_62@@6B@	@518
	??_7UStringEnumeration@icu_62@@6B@	@519
	??_7UStringSet@icu_62@@6B@	@520
	??_7UVector32@icu_62@@6B@	@521
	??_7UVector64@icu_62@@6B@	@522
	??_7UVector@icu_62@@6B@	@523
	??_7UnicodeFilter@icu_62@@6BUnicodeFunctor@1@@	@524
	??_7UnicodeFilter@icu_62@@6BUnicodeMatcher@1@@	@525
	??_7UnicodeFunctor@icu_62@@6B@	@526
	??_7UnicodeMatcher@icu_62@@6B@	@527
	??_7UnicodeSet@icu_62@@6BUnicodeFunctor@1@@	@528
	??_7UnicodeSet@icu_62@@6BUnicodeMatcher@1@@	@529
	??_7UnicodeSetIterator@icu_62@@6B@	@530
	??_7UnicodeString@icu_62@@6B@	@531
	??_7UnicodeStringAppendable@icu_62@@6B@	@532
	??_7UnifiedCache@icu_62@@6B@	@533
	??_7UnifiedCacheBase@icu_62@@6B@	@534
	??_FMutex@icu_62@@QEAAXXZ	@535
	??_UUMemory@icu_62@@SAPEAX_K@Z	@536
	??_VUMemory@icu_62@@SAXPEAX@Z	@537
	?Append@CheckedArrayByteSink@icu_62@@UEAAXPEBDH@Z	@538
	?DEVICE_CPU@tensorflow@@3QEBDEB	@539
	?DEVICE_GPU@tensorflow@@3QEBDEB	@540
	?DEVICE_SYCL@tensorflow@@3QEBDEB	@541
	?Flush@ByteSink@icu_62@@UEAAXXZ	@542
	?GetAppendBuffer@ByteSink@icu_62@@UEAAPEADHHPEADHPEAH@Z	@543
	?GetAppendBuffer@CheckedArrayByteSink@icu_62@@UEAAPEADHHPEADHPEAH@Z	@544
	?NumberOfBytesAppended@CheckedArrayByteSink@icu_62@@QEBAHXZ	@545
	?NumberOfBytesWritten@CheckedArrayByteSink@icu_62@@QEBAHXZ	@546
	?Overflowed@CheckedArrayByteSink@icu_62@@QEBACXZ	@547
	?PREFIX_DELIMITER@ICUServiceKey@icu_62@@1_SB	@548
	?Reset@CheckedArrayByteSink@icu_62@@UEAAAEAV12@XZ	@549
	?STACK_CAPACITY@Edits@icu_62@@0HB	@550
	?TRANSFORM_NONE@DictionaryData@icu_62@@2HB	@551
	?TRANSFORM_OFFSET_MASK@DictionaryData@icu_62@@2HB	@552
	?TRANSFORM_TYPE_MASK@DictionaryData@icu_62@@2HB	@553
	?TRANSFORM_TYPE_OFFSET@DictionaryData@icu_62@@2HB	@554
	?TRIE_HAS_VALUES@DictionaryData@icu_62@@2HB	@555
	?TRIE_TYPE_BYTES@DictionaryData@icu_62@@2HB	@556
	?TRIE_TYPE_MASK@DictionaryData@icu_62@@2HB	@557
	?TRIE_TYPE_UCHARS@DictionaryData@icu_62@@2HB	@558
	?ThenBlasGemm@Stream@stream_executor@@QEAAAEAV12@W4Transpose@blas@2@0_K11MAEBV?$DeviceMemory@M@2@H2HMPEAV52@H@Z	@559
	?ThenBlasGemm@Stream@stream_executor@@QEAAAEAV12@W4Transpose@blas@2@0_K11MAEBV?$DeviceMemory@Uhalf@Eigen@@@2@H2HMPEAV52@H@Z	@560
	?ThenBlasGemm@Stream@stream_executor@@QEAAAEAV12@W4Transpose@blas@2@0_K11NAEBV?$DeviceMemory@N@2@H2HNPEAV52@H@Z	@561
	?ThenBlasGemm@Stream@stream_executor@@QEAAAEAV12@W4Transpose@blas@2@0_K11V?$complex@M@std@@AEBV?$DeviceMemory@V?$complex@M@std@@@2@H3H2PEAV72@H@Z	@562
	?ThenBlasGemm@Stream@stream_executor@@QEAAAEAV12@W4Transpose@blas@2@0_K11V?$complex@N@std@@AEBV?$DeviceMemory@V?$complex@N@std@@@2@H3H2PEAV72@H@Z	@563
	?_add@UnicodeSet@icu_62@@AEAAXAEBVUnicodeString@2@@Z	@564
	?_appendToPat@UnicodeSet@icu_62@@CAXAEAVUnicodeString@2@AEBV32@C@Z	@565
	?_appendToPat@UnicodeSet@icu_62@@CAXAEAVUnicodeString@2@HC@Z	@566
	?_computeCountOfItemsToEvict@UnifiedCache@icu_62@@AEBAHXZ	@567
	?_fetch@UnifiedCache@icu_62@@AEBAXPEBUUHashElement@@AEAPEBVSharedObject@2@AEAW4UErrorCode@@@Z	@568
	?_flush@UnifiedCache@icu_62@@AEBACC@Z	@569
	?_generatePattern@UnicodeSet@icu_62@@AEBAAEAVUnicodeString@2@AEAV32@C@Z	@570
	?_get@UnifiedCache@icu_62@@AEBAXAEBVCacheKeyBase@2@AEAPEBVSharedObject@2@PEBXAEAW4UErrorCode@@@Z	@571
	?_inProgress@UnifiedCache@icu_62@@AEBACPEBUUHashElement@@@Z	@572
	?_inProgress@UnifiedCache@icu_62@@AEBACPEBVSharedObject@2@W4UErrorCode@@@Z	@573
	?_init@UVector32@icu_62@@AEAAXHAEAW4UErrorCode@@@Z	@574
	?_init@UVector64@icu_62@@AEAAXHAEAW4UErrorCode@@@Z	@575
	?_init@UVector@icu_62@@AEAAXHAEAW4UErrorCode@@@Z	@576
	?_isEvictable@UnifiedCache@icu_62@@AEBACPEBUUHashElement@@@Z	@577
	?_nextElement@UnifiedCache@icu_62@@AEBAPEBUUHashElement@@XZ	@578
	?_poll@UnifiedCache@icu_62@@AEBACAEBVCacheKeyBase@2@AEAPEBVSharedObject@2@AEAW4UErrorCode@@@Z	@579
	?_put@UnifiedCache@icu_62@@AEBAXPEBUUHashElement@@PEBVSharedObject@2@W4UErrorCode@@@Z	@580
	?_putIfAbsentAndGet@UnifiedCache@icu_62@@AEBAXAEBVCacheKeyBase@2@AEAPEBVSharedObject@2@AEAW4UErrorCode@@@Z	@581
	?_putNew@UnifiedCache@icu_62@@AEBAXAEBVCacheKeyBase@2@PEBVSharedObject@2@W4UErrorCode@@AEAW45@@Z	@582
	?_registerMaster@UnifiedCache@icu_62@@AEBAXPEBVCacheKeyBase@2@PEBVSharedObject@2@@Z	@583
	?_runEvictionSlice@UnifiedCache@icu_62@@AEBAXXZ	@584
	?_toPattern@UnicodeSet@icu_62@@AEBAAEAVUnicodeString@2@AEAV32@C@Z	@585
	?acceptsListener@ICUService@icu_62@@MEBACAEBVEventListener@2@@Z	@586
	?add@BytesTrieBuilder@icu_62@@QEAAAEAV12@VStringPiece@2@HAEAW4UErrorCode@@@Z	@587
	?add@UCharsTrieBuilder@icu_62@@QEAAAEAV12@AEBVUnicodeString@2@HAEAW4UErrorCode@@@Z	@588
	?add@UStringSet@icu_62@@QEAACAEBVUnicodeString@2@AEAW4UErrorCode@@@Z	@589
	?add@UnicodeSet@icu_62@@AEAAXPEBHHC@Z	@590
	?add@UnicodeSet@icu_62@@QEAAAEAV12@AEBVUnicodeString@2@@Z	@591
	?add@UnicodeSet@icu_62@@QEAAAEAV12@H@Z	@592
	?add@UnicodeSet@icu_62@@UEAAAEAV12@HH@Z	@593
	?addAll@UnicodeSet@icu_62@@QEAAAEAV12@AEBVUnicodeString@2@@Z	@594
	?addAll@UnicodeSet@icu_62@@UEAAAEAV12@AEBV12@@Z	@595
	?addArgDoublePart@MessagePattern@icu_62@@AEAAXNHHAEAW4UErrorCode@@@Z	@596
	?addCanonIterPropertyStarts@Normalizer2Impl@icu_62@@QEBAXPEBUUSetAdder@@AEAW4UErrorCode@@@Z	@597
	?addComposites@Normalizer2Impl@icu_62@@AEBAXPEBGAEAVUnicodeSet@2@@Z	@598
	?addElement@UVector32@icu_62@@QEAAXHAEAW4UErrorCode@@@Z	@599
	?addElement@UVector64@icu_62@@QEAAX_JAEAW4UErrorCode@@@Z	@600
	?addElement@UVector@icu_62@@QEAAXHAEAW4UErrorCode@@@Z	@601
	?addElement@UVector@icu_62@@QEAAXPEAXAEAW4UErrorCode@@@Z	@602
	?addHardRef@UnifiedCache@icu_62@@AEBAHPEBVSharedObject@2@@Z	@603
	?addLcccChars@Normalizer2Impl@icu_62@@QEBAXAEAVUnicodeSet@2@@Z	@604
	?addLimitPart@MessagePattern@icu_62@@AEAAXHW4UMessagePatternPartType@@HHHAEAW4UErrorCode@@@Z	@605
	?addListener@ICUNotifier@icu_62@@UEAAXPEBVEventListener@2@AEAW4UErrorCode@@@Z	@606
	?addMatchSetTo@UnicodeSet@icu_62@@UEBAXAEAV12@@Z	@607
	?addPart@MessagePattern@icu_62@@AEAAXW4UMessagePatternPartType@@HHHAEAW4UErrorCode@@@Z	@608
	?addPropertyStarts@Normalizer2Impl@icu_62@@QEBAXPEBUUSetAdder@@AEAW4UErrorCode@@@Z	@609
	?addRef@SharedObject@icu_62@@QEBAXXZ	@610
	?addRef@UnicodeString@icu_62@@AEAAXXZ	@611
	?addReplace@Edits@icu_62@@QEAAXHH@Z	@612
	?addUnchanged@Edits@icu_62@@QEAAXH@Z	@613
	?adopt@UStringSet@icu_62@@QEAACPEAVUnicodeString@2@AEAW4UErrorCode@@@Z	@614
	?adoptText@RuleBasedBreakIterator@icu_62@@UEAAXPEAVCharacterIterator@2@@Z	@615
	?aliasInstead@?$MaybeStackArray@D$0CI@@icu_62@@QEAAXPEADH@Z	@616
	?allocate@UnicodeString@icu_62@@AEAACH@Z	@617
	?allocateStrings@UnicodeSet@icu_62@@AEAACAEAW4UErrorCode@@@Z	@618
	?append@BytesTrie@icu_62@@CAXAEAVByteSink@2@H@Z	@619
	?append@CharString@icu_62@@QEAAAEAV12@AEBV12@AEAW4UErrorCode@@@Z	@620
	?append@CharString@icu_62@@QEAAAEAV12@DAEAW4UErrorCode@@@Z	@621
	?append@CharString@icu_62@@QEAAAEAV12@PEBDHAEAW4UErrorCode@@@Z	@622
	?append@CharString@icu_62@@QEAAAEAV12@VStringPiece@2@AEAW4UErrorCode@@@Z	@623
	?append@Edits@icu_62@@AEAAXH@Z	@624
	?append@FilteredNormalizer2@icu_62@@UEBAAEAVUnicodeString@2@AEAV32@AEBV32@AEAW4UErrorCode@@@Z	@625
	?append@ReorderingBuffer@icu_62@@QEAACHEAEAW4UErrorCode@@@Z	@626
	?append@ReorderingBuffer@icu_62@@QEAACPEB_SHEEAEAW4UErrorCode@@@Z	@627
	?append@UnicodeString@icu_62@@QEAAAEAV12@AEBV12@@Z	@628
	?append@UnicodeString@icu_62@@QEAAAEAV12@AEBV12@HH@Z	@629
	?append@UnicodeString@icu_62@@QEAAAEAV12@H@Z	@630
	?append@UnicodeString@icu_62@@QEAAAEAV12@PEB_SHH@Z	@631
	?append@UnicodeString@icu_62@@QEAAAEAV12@VConstChar16Ptr@2@H@Z	@632
	?append@UnicodeString@icu_62@@QEAAAEAV12@_S@Z	@633
	?appendBMP@ReorderingBuffer@icu_62@@QEAAC_SEAEAW4UErrorCode@@@Z	@634
	?appendChange@ByteSinkUtil@icu_62@@SACHPEB_SHAEAVByteSink@2@PEAVEdits@2@AEAW4UErrorCode@@@Z	@635
	?appendChange@ByteSinkUtil@icu_62@@SACPEBE0PEB_SHAEAVByteSink@2@PEAVEdits@2@AEAW4UErrorCode@@@Z	@636
	?appendCodePoint@Appendable@icu_62@@UEAACH@Z	@637
	?appendCodePoint@ByteSinkUtil@icu_62@@SAXHHAEAVByteSink@2@PEAVEdits@2@@Z	@638
	?appendCodePoint@ByteSinkUtil@icu_62@@SAXPEBE0HAEAVByteSink@2@PEAVEdits@2@@Z	@639
	?appendCodePoint@UnicodeStringAppendable@icu_62@@UEAACH@Z	@640
	?appendCodeUnit@UnicodeStringAppendable@icu_62@@UEAAC_S@Z	@641
	?appendInvariantChars@CharString@icu_62@@QEAAAEAV12@AEBVUnicodeString@2@AEAW4UErrorCode@@@Z	@642
	?appendNonEmptyUnchanged@ByteSinkUtil@icu_62@@CAXPEBEHAEAVByteSink@2@IPEAVEdits@2@@Z	@643
	?appendNumber@ICU_Utility@icu_62@@SAAEAVUnicodeString@2@AEAV32@HHH@Z	@644
	?appendPathPart@CharString@icu_62@@QEAAAEAV12@VStringPiece@2@AEAW4UErrorCode@@@Z	@645
	?appendReducedApostrophes@MessageImpl@icu_62@@SAXAEBVUnicodeString@2@HHAEAV32@@Z	@646
	?appendString@Appendable@icu_62@@UEAACPEB_SH@Z	@647
	?appendString@UnicodeStringAppendable@icu_62@@UEAACPEB_SH@Z	@648
	?appendSubMessageWithoutSkipSyntax@MessageImpl@icu_62@@SAAEAVUnicodeString@2@AEBVMessagePattern@2@HAEAV32@@Z	@649
	?appendSupplementary@ReorderingBuffer@icu_62@@AEAACHEAEAW4UErrorCode@@@Z	@650
	?appendToRule@ICU_Utility@icu_62@@SAXAEAVUnicodeString@2@AEBV32@CC0@Z	@651
	?appendToRule@ICU_Utility@icu_62@@SAXAEAVUnicodeString@2@HCC0@Z	@652
	?appendToRule@ICU_Utility@icu_62@@SAXAEAVUnicodeString@2@PEBVUnicodeMatcher@2@C0@Z	@653
	?appendTwoBytes@ByteSinkUtil@icu_62@@SAXHAEAVByteSink@2@@Z	@654
	?appendUnchanged@ByteSinkUtil@icu_62@@SACPEBE0AEAVByteSink@2@IPEAVEdits@2@AEAW4UErrorCode@@@Z	@655
	?appendUnchanged@ByteSinkUtil@icu_62@@SACPEBEHAEAVByteSink@2@IPEAVEdits@2@AEAW4UErrorCode@@@Z	@656
	?appendZeroCC@ReorderingBuffer@icu_62@@QEAACHAEAW4UErrorCode@@@Z	@657
	?appendZeroCC@ReorderingBuffer@icu_62@@QEAACPEB_S0AEAW4UErrorCode@@@Z	@658
	?applyFilter@UnicodeSet@icu_62@@AEAAXP6ACHPEAX@Z0HAEAW4UErrorCode@@@Z	@659
	?applyIntPropertyValue@UnicodeSet@icu_62@@QEAAAEAV12@W4UProperty@@HAEAW4UErrorCode@@@Z	@660
	?applyPattern@SimpleFormatter@icu_62@@QEAACAEBVUnicodeString@2@AEAW4UErrorCode@@@Z	@661
	?applyPattern@UnicodeSet@icu_62@@AEAAXAEAVRuleCharacterIterator@2@PEBVSymbolTable@2@AEAVUnicodeString@2@IP812@EAAAEAV12@H@ZHAEAW4UErrorCode@@@Z	@662
	?applyPattern@UnicodeSet@icu_62@@QEAAAEAV12@AEBVUnicodeString@2@AEAVParsePosition@2@IPEBVSymbolTable@2@AEAW4UErrorCode@@@Z	@663
	?applyPattern@UnicodeSet@icu_62@@QEAAAEAV12@AEBVUnicodeString@2@AEAW4UErrorCode@@@Z	@664
	?applyPattern@UnicodeSet@icu_62@@QEAAAEAV12@AEBVUnicodeString@2@IPEBVSymbolTable@2@AEAW4UErrorCode@@@Z	@665
	?applyPatternIgnoreSpace@UnicodeSet@icu_62@@AEAAXAEBVUnicodeString@2@AEAVParsePosition@2@PEBVSymbolTable@2@AEAW4UErrorCode@@@Z	@666
	?applyPatternMinMaxArguments@SimpleFormatter@icu_62@@QEAACAEBVUnicodeString@2@HHAEAW4UErrorCode@@@Z	@667
	?applyPropertyAlias@UnicodeSet@icu_62@@QEAAAEAV12@AEBVUnicodeString@2@0AEAW4UErrorCode@@@Z	@668
	?applyPropertyPattern@UnicodeSet@icu_62@@AEAAAEAV12@AEBVUnicodeString@2@AEAVParsePosition@2@AEAW4UErrorCode@@@Z	@669
	?applyPropertyPattern@UnicodeSet@icu_62@@AEAAXAEAVRuleCharacterIterator@2@AEAVUnicodeString@2@AEAW4UErrorCode@@@Z	@670
	?assertSuccess@ErrorCode@icu_62@@QEBAXXZ	@671
	?assign@UVector32@icu_62@@QEAAXAEBV12@AEAW4UErrorCode@@@Z	@672
	?assign@UVector64@icu_62@@QEAAXAEBV12@AEAW4UErrorCode@@@Z	@673
	?assign@UVector@icu_62@@QEAAXAEBV12@P6AXPEATUElement@@1@ZAEAW4UErrorCode@@@Z	@674
	?autoEvictedCount@UnifiedCache@icu_62@@QEBA_JXZ	@675
	?autoQuoteApostropheDeep@MessagePattern@icu_62@@QEBA?AVUnicodeString@2@XZ	@676
	?branchNext@BytesTrie@icu_62@@AEAA?AW4UStringTrieResult@@PEBEHH@Z	@677
	?branchNext@Iterator@BytesTrie@icu_62@@AEAAPEBEPEBEHAEAW4UErrorCode@@@Z	@678
	?branchNext@Iterator@UCharsTrie@icu_62@@AEAAPEB_SPEB_SHAEAW4UErrorCode@@@Z	@679
	?branchNext@UCharsTrie@icu_62@@AEAA?AW4UStringTrieResult@@PEB_SHH@Z	@680
	?build@BytesTrieBuilder@icu_62@@QEAAPEAVBytesTrie@2@W4UStringTrieBuildOption@@AEAW4UErrorCode@@@Z	@681
	?build@SimpleFilteredBreakIteratorBuilder@icu_62@@UEAAPEAVBreakIterator@2@PEAV32@AEAW4UErrorCode@@@Z	@682
	?build@StringTrieBuilder@icu_62@@IEAAXW4UStringTrieBuildOption@@HAEAW4UErrorCode@@@Z	@683
	?build@UCharsTrieBuilder@icu_62@@QEAAPEAVUCharsTrie@2@W4UStringTrieBuildOption@@AEAW4UErrorCode@@@Z	@684
	?buildBytes@BytesTrieBuilder@icu_62@@AEAAXW4UStringTrieBuildOption@@AEAW4UErrorCode@@@Z	@685
	?buildInstance@BreakIterator@icu_62@@CAPEAV12@AEBVLocale@2@PEBDAEAW4UErrorCode@@@Z	@686
	?buildStringPiece@BytesTrieBuilder@icu_62@@QEAA?AVStringPiece@2@W4UStringTrieBuildOption@@AEAW4UErrorCode@@@Z	@687
	?buildUChars@UCharsTrieBuilder@icu_62@@AEAAXW4UStringTrieBuildOption@@AEAW4UErrorCode@@@Z	@688
	?buildUnicodeString@UCharsTrieBuilder@icu_62@@QEAAAEAVUnicodeString@2@W4UStringTrieBuildOption@@AEAV32@AEAW4UErrorCode@@@Z	@689
	?canonicalID@ICUServiceKey@icu_62@@UEBAAEAVUnicodeString@2@AEAV32@@Z	@690
	?canonicalID@LocaleKey@icu_62@@UEBAAEAVUnicodeString@2@AEAV32@@Z	@691
	?canonicalLocale@LocaleKey@icu_62@@UEBAAEAVLocale@2@AEAV32@@Z	@692
	?canonicalLocaleString@LocaleUtility@icu_62@@SAAEAVUnicodeString@2@PEBV32@AEAV32@@Z	@693
	?caseCompare@UnicodeString@icu_62@@QEBACAEBV12@I@Z	@694
	?caseCompare@UnicodeString@icu_62@@QEBACHHAEBV12@HHI@Z	@695
	?caseCompare@UnicodeString@icu_62@@QEBACHHAEBV12@I@Z	@696
	?caseCompare@UnicodeString@icu_62@@QEBACHHPEB_SHHI@Z	@697
	?caseCompare@UnicodeString@icu_62@@QEBACHHPEB_SI@Z	@698
	?caseCompare@UnicodeString@icu_62@@QEBACVConstChar16Ptr@2@HI@Z	@699
	?caseCompareBetween@UnicodeString@icu_62@@QEBACHHAEBV12@HHI@Z	@700
	?caseMap@UnicodeString@icu_62@@AEAAAEAV12@HIPEAVBreakIterator@2@P6AHHI0PEA_SHPEB_SHPEAVEdits@2@AEAW4UErrorCode@@@Z@Z	@701
	?char32At@Replaceable@icu_62@@QEBAHH@Z	@702
	?char32At@UnicodeString@icu_62@@QEBAHH@Z	@703
	?charAt@Replaceable@icu_62@@QEBA_SH@Z	@704
	?charAt@UnicodeSet@icu_62@@QEBAHH@Z	@705
	?charAt@UnicodeString@icu_62@@QEBA_SH@Z	@706
	?chooseFrom@unisets@icu_62@@YA?AW4Key@12@VUnicodeString@2@W4312@1@Z	@707
	?chooseFrom@unisets@icu_62@@YA?AW4Key@12@VUnicodeString@2@W4312@@Z	@708
	?cleanPieces@CanonicalIterator@icu_62@@AEAAXXZ	@709
	?clear@BytesTrieBuilder@icu_62@@QEAAAEAV12@XZ	@710
	?clear@CharString@icu_62@@QEAAAEAV12@XZ	@711
	?clear@MessagePattern@icu_62@@QEAAXXZ	@712
	?clear@StringPiece@icu_62@@QEAAXXZ	@713
	?clear@UCharsTrieBuilder@icu_62@@QEAAAEAV12@XZ	@714
	?clear@UnicodeSet@icu_62@@UEAAAEAV12@XZ	@715
	?clearBuffer@Normalizer@icu_62@@AEAAXXZ	@716
	?clearCaches@ICUService@icu_62@@MEAAXXZ	@717
	?clearPatternAndSetApostropheMode@MessagePattern@icu_62@@QEAAXW4UMessagePatternApostropheMode@@@Z	@718
	?clearServiceCache@ICUService@icu_62@@IEAAXXZ	@719
	?clone@DateInterval@icu_62@@UEBAPEAV12@XZ	@720
	?clone@Locale@icu_62@@QEBAPEAV12@XZ	@721
	?clone@Normalizer@icu_62@@QEBAPEAV12@XZ	@722
	?clone@ParsePosition@icu_62@@QEBAPEAV12@XZ	@723
	?clone@Replaceable@icu_62@@UEBAPEAV12@XZ	@724
	?clone@ResourceBundle@icu_62@@QEBAPEAV12@XZ	@725
	?clone@RuleBasedBreakIterator@icu_62@@UEBAPEAVBreakIterator@2@XZ	@726
	?clone@StringCharacterIterator@icu_62@@UEBAPEAVCharacterIterator@2@XZ	@727
	?clone@StringEnumeration@icu_62@@UEBAPEAV12@XZ	@728
	?clone@UCharCharacterIterator@icu_62@@UEBAPEAVCharacterIterator@2@XZ	@729
	?clone@UnicodeSet@icu_62@@UEBAPEAVUnicodeFunctor@2@XZ	@730
	?clone@UnicodeString@icu_62@@UEBAPEAVReplaceable@2@XZ	@731
	?cloneArrayIfNeeded@UnicodeString@icu_62@@AEAACHHCPEAPEAHC@Z	@732
	?cloneAsThawed@UnicodeSet@icu_62@@QEBAPEAVUnicodeFunctor@2@XZ	@733
	?closeOver@UnicodeSet@icu_62@@QEAAAEAV12@H@Z	@734
	?combine@Normalizer2Impl@icu_62@@CAHPEBGH@Z	@735
	?compact@UnicodeSet@icu_62@@UEAAAEAV12@XZ	@736
	?compare@Normalizer@icu_62@@SAHAEBVUnicodeString@2@0IAEAW4UErrorCode@@@Z	@737
	?compare@UnicodeString@icu_62@@QEBACAEBV12@@Z	@738
	?compare@UnicodeString@icu_62@@QEBACHHAEBV12@@Z	@739
	?compare@UnicodeString@icu_62@@QEBACHHAEBV12@HH@Z	@740
	?compare@UnicodeString@icu_62@@QEBACHHPEB_S@Z	@741
	?compare@UnicodeString@icu_62@@QEBACHHPEB_SHH@Z	@742
	?compare@UnicodeString@icu_62@@QEBACVConstChar16Ptr@2@H@Z	@743
	?compareBetween@UnicodeString@icu_62@@QEBACHHAEBV12@HH@Z	@744
	?compareCodePointOrder@UnicodeString@icu_62@@QEBACAEBV12@@Z	@745
	?compareCodePointOrder@UnicodeString@icu_62@@QEBACHHAEBV12@@Z	@746
	?compareCodePointOrder@UnicodeString@icu_62@@QEBACHHAEBV12@HH@Z	@747
	?compareCodePointOrder@UnicodeString@icu_62@@QEBACHHPEB_S@Z	@748
	?compareCodePointOrder@UnicodeString@icu_62@@QEBACHHPEB_SHH@Z	@749
	?compareCodePointOrder@UnicodeString@icu_62@@QEBACVConstChar16Ptr@2@H@Z	@750
	?compareCodePointOrderBetween@UnicodeString@icu_62@@QEBACHHAEBV12@HH@Z	@751
	?complement@UnicodeSet@icu_62@@QEAAAEAV12@AEBVUnicodeString@2@@Z	@752
	?complement@UnicodeSet@icu_62@@QEAAAEAV12@H@Z	@753
	?complement@UnicodeSet@icu_62@@UEAAAEAV12@HH@Z	@754
	?complement@UnicodeSet@icu_62@@UEAAAEAV12@XZ	@755
	?complementAll@UnicodeSet@icu_62@@QEAAAEAV12@AEBVUnicodeString@2@@Z	@756
	?complementAll@UnicodeSet@icu_62@@UEAAAEAV12@AEBV12@@Z	@757
	?compose@Normalizer2Impl@icu_62@@QEBACPEB_S0CCAEAVReorderingBuffer@2@AEAW4UErrorCode@@@Z	@758
	?compose@Normalizer@icu_62@@SAXAEBVUnicodeString@2@CHAEAV32@AEAW4UErrorCode@@@Z	@759
	?composeAndAppend@Normalizer2Impl@icu_62@@QEBAXPEB_S0CCAEAVUnicodeString@2@AEAVReorderingBuffer@2@AEAW4UErrorCode@@@Z	@760
	?composePair@FilteredNormalizer2@icu_62@@UEBAHHH@Z	@761
	?composePair@Normalizer2@icu_62@@UEBAHHH@Z	@762
	?composePair@Normalizer2Impl@icu_62@@QEBAHHH@Z	@763
	?composeQuickCheck@Normalizer2Impl@icu_62@@QEBAPEB_SPEB_S0CPEAW4UNormalizationCheckResult@@@Z	@764
	?composeUTF8@Normalizer2Impl@icu_62@@QEBACICPEBE0PEAVByteSink@2@PEAVEdits@2@AEAW4UErrorCode@@@Z	@765
	?concatenate@Normalizer@icu_62@@SAAEAVUnicodeString@2@AEBV32@0AEAV32@W4UNormalizationMode@@HAEAW4UErrorCode@@@Z	@766
	?constructForLocale@ResourceBundle@icu_62@@AEAAXAEBVUnicodeString@2@AEBVLocale@2@AEAW4UErrorCode@@@Z	@767
	?contains@UStringSet@icu_62@@QEAACAEBVUnicodeString@2@@Z	@768
	?contains@UVector32@icu_62@@QEBACH@Z	@769
	?contains@UVector@icu_62@@QEBACH@Z	@770
	?contains@UVector@icu_62@@QEBACPEAX@Z	@771
	?contains@UnicodeSet@icu_62@@QEBACAEBVUnicodeString@2@@Z	@772
	?contains@UnicodeSet@icu_62@@UEBACH@Z	@773
	?contains@UnicodeSet@icu_62@@UEBACHH@Z	@774
	?containsAll@UVector32@icu_62@@QEBACAEBV12@@Z	@775
	?containsAll@UVector@icu_62@@QEBACAEBV12@@Z	@776
	?containsAll@UnicodeSet@icu_62@@QEBACAEBVUnicodeString@2@@Z	@777
	?containsAll@UnicodeSet@icu_62@@UEBACAEBV12@@Z	@778
	?containsNone@UVector32@icu_62@@QEBACAEBV12@@Z	@779
	?containsNone@UVector@icu_62@@QEBACAEBV12@@Z	@780
	?containsNone@UnicodeSet@icu_62@@QEBACAEBV12@@Z	@781
	?containsNone@UnicodeSet@icu_62@@QEBACAEBVUnicodeString@2@@Z	@782
	?containsNone@UnicodeSet@icu_62@@QEBACHH@Z	@783
	?containsSome@UnicodeSet@icu_62@@QEBACAEBV12@@Z	@784
	?containsSome@UnicodeSet@icu_62@@QEBACAEBVUnicodeString@2@@Z	@785
	?containsSome@UnicodeSet@icu_62@@QEBACHH@Z	@786
	?copy@UnicodeString@icu_62@@UEAAXHHH@Z	@787
	?copyArray@Edits@icu_62@@AEAAAEAV12@AEBV12@@Z	@788
	?copyErrorTo@Edits@icu_62@@QEAACAEAW4UErrorCode@@@Z	@789
	?copyFieldsFrom@UnicodeString@icu_62@@AEAAXAEAV12@C@Z	@790
	?copyFrom@CharString@icu_62@@QEAAAEAV12@AEBV12@AEAW4UErrorCode@@@Z	@791
	?copyFrom@UnicodeString@icu_62@@AEAAAEAV12@AEBV12@C@Z	@792
	?copyLowPrefixFromNulTerminated@Normalizer2Impl@icu_62@@AEBAPEB_SPEB_SHPEAVReorderingBuffer@2@AEAW4UErrorCode@@@Z	@793
	?copyReorderableSuffixTo@ReorderingBuffer@icu_62@@QEBAXAEAVUnicodeString@2@@Z	@794
	?copyStorage@MessagePattern@icu_62@@AEAACAEBV12@AEAW4UErrorCode@@@Z	@795
	?count@Hashtable@icu_62@@QEBAHXZ	@796
	?count@UStringEnumeration@icu_62@@UEBAHAEAW4UErrorCode@@@Z	@797
	?countChar32@UnicodeString@icu_62@@QEBAHHH@Z	@798
	?countElementUnits@BytesTrieBuilder@icu_62@@EEBAHHHH@Z	@799
	?countElementUnits@UCharsTrieBuilder@icu_62@@EEBAHHHH@Z	@800
	?countFactories@ICUService@icu_62@@IEBAHXZ	@801
	?countParts@MessagePattern@icu_62@@QEBAHXZ	@802
	?create@LocaleKeyFactory@icu_62@@UEBAPEAVUObject@2@AEBVICUServiceKey@2@PEBVICUService@2@AEAW4UErrorCode@@@Z	@803
	?create@SimpleFactory@icu_62@@UEBAPEAVUObject@2@AEBVICUServiceKey@2@PEBVICUService@2@AEAW4UErrorCode@@@Z	@804
	?create@SimpleLocaleKeyFactory@icu_62@@UEBAPEAVUObject@2@AEBVICUServiceKey@2@PEBVICUService@2@AEAW4UErrorCode@@@Z	@805
	?create@StringPair@icu_62@@SAPEAV12@AEBVUnicodeString@2@0AEAW4UErrorCode@@@Z	@806
	?createBufferClone@RuleBasedBreakIterator@icu_62@@UEAAPEAVBreakIterator@2@PEAXAEAHAEAW4UErrorCode@@@Z	@807
	?createCanonical@Locale@icu_62@@SA?AV12@PEBD@Z	@808
	?createCharacterInstance@BreakIterator@icu_62@@SAPEAV12@AEBVLocale@2@AEAW4UErrorCode@@@Z	@809
	?createCompactBuilder@StringTrieBuilder@icu_62@@IEAAXHAEAW4UErrorCode@@@Z	@810
	?createEmptyInstance@FilteredBreakIteratorBuilder@icu_62@@SAPEAV12@AEAW4UErrorCode@@@Z	@811
	?createFrom@UnicodeSet@icu_62@@SAPEAV12@AEBVUnicodeString@2@@Z	@812
	?createFromAll@UnicodeSet@icu_62@@SAPEAV12@AEBVUnicodeString@2@@Z	@813
	?createFromName@Locale@icu_62@@SA?AV12@PEBD@Z	@814
	?createInstance@BreakIterator@icu_62@@CAPEAV12@AEBVLocale@2@HAEAW4UErrorCode@@@Z	@815
	?createInstance@FilteredBreakIteratorBuilder@icu_62@@SAPEAV12@AEAW4UErrorCode@@@Z	@816
	?createInstance@FilteredBreakIteratorBuilder@icu_62@@SAPEAV12@AEBVLocale@2@AEAW4UErrorCode@@@Z	@817
	?createInstance@ListFormatter@icu_62@@SAPEAV12@AEAW4UErrorCode@@@Z	@818
	?createInstance@ListFormatter@icu_62@@SAPEAV12@AEBVLocale@2@AEAW4UErrorCode@@@Z	@819
	?createInstance@ListFormatter@icu_62@@SAPEAV12@AEBVLocale@2@PEBDAEAW4UErrorCode@@@Z	@820
	?createInstance@LocaleDisplayNames@icu_62@@SAPEAV12@AEBVLocale@2@@Z	@821
	?createInstance@LocaleDisplayNames@icu_62@@SAPEAV12@AEBVLocale@2@PEAW4UDisplayContext@@H@Z	@822
	?createInstance@LocaleDisplayNames@icu_62@@SAPEAV12@AEBVLocale@2@W4UDialectHandling@@@Z	@823
	?createKey@ICULocaleService@icu_62@@MEBAPEAVICUServiceKey@2@PEBVUnicodeString@2@AEAW4UErrorCode@@@Z	@824
	?createKey@ICULocaleService@icu_62@@MEBAPEAVICUServiceKey@2@PEBVUnicodeString@2@HAEAW4UErrorCode@@@Z	@825
	?createKey@ICUService@icu_62@@UEBAPEAVICUServiceKey@2@PEBVUnicodeString@2@AEAW4UErrorCode@@@Z	@826
	?createKeywords@Locale@icu_62@@QEBAPEAVStringEnumeration@2@AEAW4UErrorCode@@@Z	@827
	?createLineInstance@BreakIterator@icu_62@@SAPEAV12@AEBVLocale@2@AEAW4UErrorCode@@@Z	@828
	?createLinearMatchNode@BytesTrieBuilder@icu_62@@EEBAPEAVNode@StringTrieBuilder@2@HHHPEAV342@@Z	@829
	?createLinearMatchNode@UCharsTrieBuilder@icu_62@@EEBAPEAVNode@StringTrieBuilder@2@HHHPEAV342@@Z	@830
	?createSentenceInstance@BreakIterator@icu_62@@SAPEAV12@AEBVLocale@2@AEAW4UErrorCode@@@Z	@831
	?createSimpleFactory@ICUService@icu_62@@MEAAPEAVICUServiceFactory@2@PEAVUObject@2@AEBVUnicodeString@2@CAEAW4UErrorCode@@@Z	@832
	?createTitleInstance@BreakIterator@icu_62@@SAPEAV12@AEBVLocale@2@AEAW4UErrorCode@@@Z	@833
	?createUTS46Instance@IDNA@icu_62@@SAPEAV12@IAEAW4UErrorCode@@@Z	@834
	?createWithCanonicalFallback@LocaleKey@icu_62@@SAPEAV12@PEBVUnicodeString@2@0AEAW4UErrorCode@@@Z	@835
	?createWithCanonicalFallback@LocaleKey@icu_62@@SAPEAV12@PEBVUnicodeString@2@0HAEAW4UErrorCode@@@Z	@836
	?createWordInstance@BreakIterator@icu_62@@SAPEAV12@AEBVLocale@2@AEAW4UErrorCode@@@Z	@837
	?current32@UCharCharacterIterator@icu_62@@UEBAHXZ	@838
	?current@BytesTrie@icu_62@@QEBA?AW4UStringTrieResult@@XZ	@839
	?current@Normalizer@icu_62@@QEAAHXZ	@840
	?current@RuleBasedBreakIterator@icu_62@@UEBAHXZ	@841
	?current@UCharCharacterIterator@icu_62@@UEBA_SXZ	@842
	?current@UCharsTrie@icu_62@@QEBA?AW4UStringTrieResult@@XZ	@843
	?currentDescriptor@ICUServiceKey@icu_62@@UEBAAEAVUnicodeString@2@AEAV32@@Z	@844
	?currentDescriptor@LocaleKey@icu_62@@UEBAAEAVUnicodeString@2@AEAV32@@Z	@845
	?currentID@ICUServiceKey@icu_62@@UEBAAEAVUnicodeString@2@AEAV32@@Z	@846
	?currentID@LocaleKey@icu_62@@UEBAAEAVUnicodeString@2@AEAV32@@Z	@847
	?currentLocale@LocaleKey@icu_62@@UEBAAEAVLocale@2@AEAV32@@Z	@848
	?data@CharString@icu_62@@QEAAPEADXZ	@849
	?data@CharString@icu_62@@QEBAPEBDXZ	@850
	?data@StringPiece@icu_62@@QEBAPEBDXZ	@851
	?decompose@Hangul@icu_62@@SAHHQEA_S@Z	@852
	?decompose@Normalizer2Impl@icu_62@@AEBACHGAEAVReorderingBuffer@2@AEAW4UErrorCode@@@Z	@853
	?decompose@Normalizer2Impl@icu_62@@QEBAAEAVUnicodeString@2@AEBV32@AEAV32@AEAW4UErrorCode@@@Z	@854
	?decompose@Normalizer2Impl@icu_62@@QEBAPEB_SPEB_S0PEAVReorderingBuffer@2@AEAW4UErrorCode@@@Z	@855
	?decompose@Normalizer2Impl@icu_62@@QEBAXPEB_S0AEAVUnicodeString@2@HAEAW4UErrorCode@@@Z	@856
	?decompose@Normalizer@icu_62@@SAXAEBVUnicodeString@2@CHAEAV32@AEAW4UErrorCode@@@Z	@857
	?decomposeAndAppend@Normalizer2Impl@icu_62@@QEBAXPEB_S0CAEAVUnicodeString@2@AEAVReorderingBuffer@2@AEAW4UErrorCode@@@Z	@858
	?decomposeShort@Normalizer2Impl@icu_62@@AEBAPEBEPEBE0CCAEAVReorderingBuffer@2@AEAW4UErrorCode@@@Z	@859
	?decomposeShort@Normalizer2Impl@icu_62@@AEBAPEB_SPEB_S0CCAEAVReorderingBuffer@2@AEAW4UErrorCode@@@Z	@860
	?deleteCompactBuilder@StringTrieBuilder@icu_62@@IEAAXXZ	@861
	?deleteIfZeroRefCount@SharedObject@icu_62@@QEBAXXZ	@862
	?destinationIndex@Iterator@Edits@icu_62@@QEBAHXZ	@863
	?destinationIndexFromSourceIndex@Iterator@Edits@icu_62@@QEAAHHAEAW4UErrorCode@@@Z	@864
	?doAppend@UnicodeString@icu_62@@AEAAAEAV12@AEBV12@HH@Z	@865
	?doAppend@UnicodeString@icu_62@@AEAAAEAV12@PEB_SHH@Z	@866
	?doCaseCompare@UnicodeString@icu_62@@AEBACHHAEBV12@HHI@Z	@867
	?doCaseCompare@UnicodeString@icu_62@@AEBACHHPEB_SHHI@Z	@868
	?doCharAt@UnicodeString@icu_62@@AEBA_SH@Z	@869
	?doCodepageCreate@UnicodeString@icu_62@@AEAAXPEBDH0@Z	@870
	?doCodepageCreate@UnicodeString@icu_62@@AEAAXPEBDHPEAUUConverter@@AEAW4UErrorCode@@@Z	@871
	?doCompare@UnicodeString@icu_62@@AEBACHHAEBV12@HH@Z	@872
	?doCompare@UnicodeString@icu_62@@AEBACHHPEB_SHH@Z	@873
	?doCompareCodePointOrder@UnicodeString@icu_62@@AEBACHHAEBV12@HH@Z	@874
	?doCompareCodePointOrder@UnicodeString@icu_62@@AEBACHHPEB_SHH@Z	@875
	?doEquals@UnicodeString@icu_62@@AEBACAEBV12@H@Z	@876
	?doExtract@UnicodeString@icu_62@@AEBAHHHPEADHPEAUUConverter@@AEAW4UErrorCode@@@Z	@877
	?doExtract@UnicodeString@icu_62@@AEBAXHHAEAV12@@Z	@878
	?doExtract@UnicodeString@icu_62@@AEBAXHHPEA_SH@Z	@879
	?doHashCode@UnicodeString@icu_62@@AEBAHXZ	@880
	?doIndexOf@UnicodeString@icu_62@@AEBAHHHH@Z	@881
	?doIndexOf@UnicodeString@icu_62@@AEBAH_SHH@Z	@882
	?doLastIndexOf@UnicodeString@icu_62@@AEBAHHHH@Z	@883
	?doLastIndexOf@UnicodeString@icu_62@@AEBAH_SHH@Z	@884
	?doReplace@UnicodeString@icu_62@@AEAAAEAV12@HHAEBV12@HH@Z	@885
	?doReplace@UnicodeString@icu_62@@AEAAAEAV12@HHPEB_SHH@Z	@886
	?doReverse@UnicodeString@icu_62@@AEAAAEAV12@HH@Z	@887
	?dumpCache@RuleBasedBreakIterator@icu_62@@QEAAXXZ	@888
	?dumpTables@RuleBasedBreakIterator@icu_62@@QEAAXXZ	@889
	?elementAt@UVector@icu_62@@QEBAPEAXH@Z	@890
	?elementAti@UVector32@icu_62@@QEBAHH@Z	@891
	?elementAti@UVector64@icu_62@@QEBA_JH@Z	@892
	?elementAti@UVector@icu_62@@QEBAHH@Z	@893
	?empty@StringPiece@icu_62@@QEBACXZ	@894
	?empty@UStack@icu_62@@QEBACXZ	@895
	?empty@UVector32@icu_62@@QEBACXZ	@896
	?endIndex@CharacterIterator@icu_62@@QEBAHXZ	@897
	?endIndex@Normalizer@icu_62@@QEBAHXZ	@898
	?endsWith@UnicodeString@icu_62@@QEBACAEBV12@@Z	@899
	?endsWith@UnicodeString@icu_62@@QEBACAEBV12@HH@Z	@900
	?endsWith@UnicodeString@icu_62@@QEBACPEB_SHH@Z	@901
	?endsWith@UnicodeString@icu_62@@QEBACVConstChar16Ptr@2@H@Z	@902
	?ensureBufferCapacity@UnicodeSet@icu_62@@AEAAXHAEAW4UErrorCode@@@Z	@903
	?ensureCanonIterData@Normalizer2Impl@icu_62@@QEBACAEAW4UErrorCode@@@Z	@904
	?ensureCapacity@BytesTrieBuilder@icu_62@@AEAACH@Z	@905
	?ensureCapacity@CharString@icu_62@@AEAACHHAEAW4UErrorCode@@@Z	@906
	?ensureCapacity@UCharsTrieBuilder@icu_62@@AEAACH@Z	@907
	?ensureCapacity@UVector32@icu_62@@QEAACHAEAW4UErrorCode@@@Z	@908
	?ensureCapacity@UVector64@icu_62@@QEAACHAEAW4UErrorCode@@@Z	@909
	?ensureCapacity@UVector@icu_62@@QEAACHAEAW4UErrorCode@@@Z	@910
	?ensureCapacity@UnicodeSet@icu_62@@AEAAXHAEAW4UErrorCode@@@Z	@911
	?ensureCharsCapacity@StringEnumeration@icu_62@@IEAAXHAEAW4UErrorCode@@@Z	@912
	?ensureEndsWithFileSeparator@CharString@icu_62@@QEAAAEAV12@AEAW4UErrorCode@@@Z	@913
	?equalNodes@StringTrieBuilder@icu_62@@SACPEBX0@Z	@914
	?equals@Hashtable@icu_62@@QEBACAEBV12@@Z	@915
	?equals@ReorderingBuffer@icu_62@@QEBACPEBE0@Z	@916
	?equals@ReorderingBuffer@icu_62@@QEBACPEB_S0@Z	@917
	?equals@UVector32@icu_62@@QEBACAEBV12@@Z	@918
	?equals@UVector@icu_62@@QEBACAEBV12@@Z	@919
	?errorName@ErrorCode@icu_62@@QEBAPEBDXZ	@920
	?escapeUnprintable@ICU_Utility@icu_62@@SACAEAVUnicodeString@2@H@Z	@921
	?exclusiveOr@UnicodeSet@icu_62@@AEAAXPEBHHC@Z	@922
	?expandCapacity@UVector32@icu_62@@QEAACHAEAW4UErrorCode@@@Z	@923
	?expandCapacity@UVector64@icu_62@@QEAACHAEAW4UErrorCode@@@Z	@924
	?extract@CanonicalIterator@icu_62@@AEAAPEAVHashtable@2@PEAV32@HPEB_SHHAEAW4UErrorCode@@@Z	@925
	?extract@UnicodeString@icu_62@@QEBAHHHPEADHW4EInvariant@12@@Z	@926
	?extract@UnicodeString@icu_62@@QEBAHHHPEADI@Z	@927
	?extract@UnicodeString@icu_62@@QEBAHHHPEADIPEBD@Z	@928
	?extract@UnicodeString@icu_62@@QEBAHHHPEADPEBD@Z	@929
	?extract@UnicodeString@icu_62@@QEBAHPEADHPEAUUConverter@@AEAW4UErrorCode@@@Z	@930
	?extract@UnicodeString@icu_62@@QEBAHVChar16Ptr@2@HAEAW4UErrorCode@@@Z	@931
	?extract@UnicodeString@icu_62@@QEBAXHHAEAV12@@Z	@932
	?extract@UnicodeString@icu_62@@QEBAXHHVChar16Ptr@2@H@Z	@933
	?extractBetween@UnicodeString@icu_62@@QEBAXHHPEA_SH@Z	@934
	?extractBetween@UnicodeString@icu_62@@UEBAXHHAEAV12@@Z	@935
	?fallback@ICUServiceKey@icu_62@@UEAACXZ	@936
	?fallback@LocaleKey@icu_62@@UEAACXZ	@937
	?fastCopyFrom@UnicodeString@icu_62@@QEAAAEAV12@AEBV12@@Z	@938
	?find@Hashtable@icu_62@@QEBAPEBUUHashElement@@AEBVUnicodeString@2@@Z	@939
	?findAndReplace@UnicodeString@icu_62@@QEAAAEAV12@AEBV12@0@Z	@940
	?findAndReplace@UnicodeString@icu_62@@QEAAAEAV12@HHAEBV12@0@Z	@941
	?findAndReplace@UnicodeString@icu_62@@QEAAAEAV12@HHAEBV12@HH0HH@Z	@942
	?findCodePoint@UnicodeSet@icu_62@@AEBAHH@Z	@943
	?findDestinationIndex@Iterator@Edits@icu_62@@QEAACHAEAW4UErrorCode@@@Z	@944
	?findIndex@Iterator@Edits@icu_62@@AEAAHHCAEAW4UErrorCode@@@Z	@945
	?findNextCompBoundary@Normalizer2Impl@icu_62@@AEBAPEB_SPEB_S0C@Z	@946
	?findNextFCDBoundary@Normalizer2Impl@icu_62@@AEBAPEB_SPEB_S0@Z	@947
	?findPreviousCompBoundary@Normalizer2Impl@icu_62@@AEBAPEB_SPEB_S0C@Z	@948
	?findPreviousFCDBoundary@Normalizer2Impl@icu_62@@AEBAPEB_SPEB_S0@Z	@949
	?findSourceIndex@Iterator@Edits@icu_62@@QEAACHAEAW4UErrorCode@@@Z	@950
	?findUniqueValue@BytesTrie@icu_62@@CACPEBECAEAH@Z	@951
	?findUniqueValue@UCharsTrie@icu_62@@CACPEB_SCAEAH@Z	@952
	?findUniqueValueFromBranch@BytesTrie@icu_62@@CAPEBEPEBEHCAEAH@Z	@953
	?findUniqueValueFromBranch@UCharsTrie@icu_62@@CAPEB_SPEB_SHCAEAH@Z	@954
	?first32@UCharCharacterIterator@icu_62@@UEAAHXZ	@955
	?first32PostInc@CharacterIterator@icu_62@@UEAAHXZ	@956
	?first32PostInc@UCharCharacterIterator@icu_62@@UEAAHXZ	@957
	?first@BytesTrie@icu_62@@QEAA?AW4UStringTrieResult@@H@Z	@958
	?first@Normalizer@icu_62@@QEAAHXZ	@959
	?first@RuleBasedBreakIterator@icu_62@@UEAAHXZ	@960
	?first@UCharCharacterIterator@icu_62@@UEAA_SXZ	@961
	?first@UCharsTrie@icu_62@@QEAA?AW4UStringTrieResult@@H@Z	@962
	?firstElement@UVector@icu_62@@QEBAPEAXXZ	@963
	?firstForCodePoint@UCharsTrie@icu_62@@QEAA?AW4UStringTrieResult@@H@Z	@964
	?firstPostInc@CharacterIterator@icu_62@@UEAA_SXZ	@965
	?firstPostInc@UCharCharacterIterator@icu_62@@UEAA_SXZ	@966
	?flush@UnifiedCache@icu_62@@QEBAXXZ	@967
	?fold@CaseMap@icu_62@@SAHIPEB_SHPEA_SHPEAVEdits@2@AEAW4UErrorCode@@@Z	@968
	?foldCase@UnicodeString@icu_62@@QEAAAEAV12@I@Z	@969
	?following@RuleBasedBreakIterator@icu_62@@UEAAHH@Z	@970
	?format@ListFormatter@icu_62@@QEBAAEAVUnicodeString@2@QEBV32@HAEAV32@AEAW4UErrorCode@@@Z	@971
	?format@ListFormatter@icu_62@@QEBAAEAVUnicodeString@2@QEBV32@HAEAV32@HAEAHAEAW4UErrorCode@@@Z	@972
	?format@SimpleFormatter@icu_62@@CAAEAVUnicodeString@2@PEB_SHPEBQEBV32@AEAV32@PEBV32@CPEAHHAEAW4UErrorCode@@@Z	@973
	?format@SimpleFormatter@icu_62@@QEBAAEAVUnicodeString@2@AEBV32@00AEAV32@AEAW4UErrorCode@@@Z	@974
	?format@SimpleFormatter@icu_62@@QEBAAEAVUnicodeString@2@AEBV32@0AEAV32@AEAW4UErrorCode@@@Z	@975
	?format@SimpleFormatter@icu_62@@QEBAAEAVUnicodeString@2@AEBV32@AEAV32@AEAW4UErrorCode@@@Z	@976
	?formatAndAppend@SimpleFormatter@icu_62@@QEBAAEAVUnicodeString@2@PEBQEBV32@HAEAV32@PEAHHAEAW4UErrorCode@@@Z	@977
	?formatAndReplace@SimpleFormatter@icu_62@@QEBAAEAVUnicodeString@2@PEBQEBV32@HAEAV32@PEAHHAEAW4UErrorCode@@@Z	@978
	?freeze@UnicodeSet@icu_62@@QEAAPEAVUnicodeFunctor@2@XZ	@979
	?fromUEnumeration@UStringEnumeration@icu_62@@SAPEAV12@PEAUUEnumeration@@AEAW4UErrorCode@@@Z	@980
	?fromUSet@UnicodeSet@icu_62@@SAPEAV12@PEAUUSet@@@Z	@981
	?fromUSet@UnicodeSet@icu_62@@SAPEBV12@PEBUUSet@@@Z	@982
	?fromUTF32@UnicodeString@icu_62@@SA?AV12@PEBHH@Z	@983
	?fromUTF8@UnicodeString@icu_62@@SA?AV12@VStringPiece@2@@Z	@984
	?get@Char16Ptr@icu_62@@QEBAPEA_SXZ	@985
	?get@ConstChar16Ptr@icu_62@@QEBAPEB_SXZ	@986
	?get@ErrorCode@icu_62@@QEBA?AW4UErrorCode@@XZ	@987
	?get@Hashtable@icu_62@@QEBAPEAXAEBVUnicodeString@2@@Z	@988
	?get@ICULocaleService@icu_62@@QEBAPEAVUObject@2@AEBVLocale@2@AEAW4UErrorCode@@@Z	@989
	?get@ICULocaleService@icu_62@@QEBAPEAVUObject@2@AEBVLocale@2@HAEAW4UErrorCode@@@Z	@990
	?get@ICULocaleService@icu_62@@QEBAPEAVUObject@2@AEBVLocale@2@HPEAV42@AEAW4UErrorCode@@@Z	@991
	?get@ICULocaleService@icu_62@@QEBAPEAVUObject@2@AEBVLocale@2@PEAV42@AEAW4UErrorCode@@@Z	@992
	?get@ICUService@icu_62@@QEBAPEAVUObject@2@AEBVUnicodeString@2@AEAW4UErrorCode@@@Z	@993
	?get@ICUService@icu_62@@QEBAPEAVUObject@2@AEBVUnicodeString@2@PEAV42@AEAW4UErrorCode@@@Z	@994
	?get@ResourceBundle@icu_62@@QEBA?AV12@HAEAW4UErrorCode@@@Z	@995
	?get@ResourceBundle@icu_62@@QEBA?AV12@PEBDAEAW4UErrorCode@@@Z	@996
	?get@unisets@icu_62@@YAPEBVUnicodeSet@2@W4Key@12@@Z	@997
	?getAlgorithmicDelta@Normalizer2Impl@icu_62@@AEBAHG@Z	@998
	?getAlias@?$MaybeStackArray@D$0CI@@icu_62@@QEBAPEADXZ	@999
	?getAliasUnicodeString@ResourceValue@icu_62@@QEBA?AVUnicodeString@2@AEAW4UErrorCode@@@Z	@1000
	?getApostropheMode@MessagePattern@icu_62@@QEBA?AW4UMessagePatternApostropheMode@@XZ	@1001
	?getAppendBuffer@Appendable@icu_62@@UEAAPEA_SHHPEA_SHPEAH@Z	@1002
	?getAppendBuffer@CharString@icu_62@@QEAAPEADHHAEAHAEAW4UErrorCode@@@Z	@1003
	?getAppendBuffer@UnicodeStringAppendable@icu_62@@UEAAPEA_SHHPEA_SHPEAH@Z	@1004
	?getArgumentLimit@SimpleFormatter@icu_62@@CAHPEB_SH@Z	@1005
	?getArgumentLimit@SimpleFormatter@icu_62@@QEBAHXZ	@1006
	?getArrayLimit@?$MaybeStackArray@D$0CI@@icu_62@@QEBAPEADXZ	@1007
	?getArrayStart@UnicodeString@icu_62@@AEAAPEA_SXZ	@1008
	?getArrayStart@UnicodeString@icu_62@@AEBAPEB_SXZ	@1009
	?getAvailableLocaleNames@LocaleUtility@icu_62@@SAPEBVHashtable@2@AEBVUnicodeString@2@@Z	@1010
	?getAvailableLocales@BreakIterator@icu_62@@SAPEAVStringEnumeration@2@XZ	@1011
	?getAvailableLocales@BreakIterator@icu_62@@SAPEBVLocale@2@AEAH@Z	@1012
	?getAvailableLocales@ICULocaleService@icu_62@@UEBAPEAVStringEnumeration@2@XZ	@1013
	?getAvailableLocales@Locale@icu_62@@SAPEBV12@AEAH@Z	@1014
	?getBaseName@Locale@icu_62@@QEBAPEBDXZ	@1015
	?getBinary@ResourceBundle@icu_62@@QEBAPEBEAEAHAEAW4UErrorCode@@@Z	@1016
	?getBinaryRules@RuleBasedBreakIterator@icu_62@@UEAAPEBEAEAI@Z	@1017
	?getBuffer@UVector32@icu_62@@QEBAPEAHXZ	@1018
	?getBuffer@UVector64@icu_62@@QEBAPEA_JXZ	@1019
	?getBuffer@UnicodeString@icu_62@@QEAAPEA_SH@Z	@1020
	?getBuffer@UnicodeString@icu_62@@QEBAPEB_SXZ	@1021
	?getCC@Normalizer2Impl@icu_62@@QEBAEG@Z	@1022
	?getCCFromNoNo@Normalizer2Impl@icu_62@@AEBAEG@Z	@1023
	?getCCFromNormalYesOrMaybe@Normalizer2Impl@icu_62@@SAEG@Z	@1024
	?getCCFromYesOrMaybe@Normalizer2Impl@icu_62@@SAEG@Z	@1025
	?getCCFromYesOrMaybeCP@Normalizer2Impl@icu_62@@QEBAEH@Z	@1026
	?getCanada@Locale@icu_62@@SAAEBV12@XZ	@1027
	?getCanadaFrench@Locale@icu_62@@SAAEBV12@XZ	@1028
	?getCanonStartSet@Normalizer2Impl@icu_62@@AEBAAEBVUnicodeSet@2@H@Z	@1029
	?getCanonStartSet@Normalizer2Impl@icu_62@@QEBACHAEAVUnicodeSet@2@@Z	@1030
	?getCanonValue@Normalizer2Impl@icu_62@@AEBAHH@Z	@1031
	?getCapacity@?$MaybeStackArray@D$0CI@@icu_62@@QEBAHXZ	@1032
	?getCapacity@UnicodeString@icu_62@@QEBAHXZ	@1033
	?getCategoryName@PluralMapBase@icu_62@@SAPEBDW4Category@12@@Z	@1034
	?getChar32At@UnicodeString@icu_62@@MEBAHH@Z	@1035
	?getChar32Limit@UnicodeString@icu_62@@QEBAHH@Z	@1036
	?getChar32Start@UnicodeString@icu_62@@QEBAHH@Z	@1037
	?getCharAt@UnicodeString@icu_62@@MEBA_SH@Z	@1038
	?getChina@Locale@icu_62@@SAAEBV12@XZ	@1039
	?getChinese@Locale@icu_62@@SAAEBV12@XZ	@1040
	?getCoarseChangesIterator@Edits@icu_62@@QEBA?AUIterator@12@XZ	@1041
	?getCoarseIterator@Edits@icu_62@@QEBA?AUIterator@12@XZ	@1042
	?getCodepoint@UnicodeSetIterator@icu_62@@QEBAHXZ	@1043
	?getCodepointEnd@UnicodeSetIterator@icu_62@@QEBAHXZ	@1044
	?getCombiningClass@FilteredNormalizer2@icu_62@@UEBAEH@Z	@1045
	?getCombiningClass@Normalizer2@icu_62@@UEBAEH@Z	@1046
	?getCompQuickCheck@Normalizer2Impl@icu_62@@QEBA?AW4UNormalizationCheckResult@@G@Z	@1047
	?getCompositionsList@Normalizer2Impl@icu_62@@AEBAPEBGG@Z	@1048
	?getCompositionsListForComposite@Normalizer2Impl@icu_62@@AEBAPEBGG@Z	@1049
	?getCompositionsListForDecompYes@Normalizer2Impl@icu_62@@AEBAPEBGG@Z	@1050
	?getCompositionsListForMaybe@Normalizer2Impl@icu_62@@AEBAPEBGG@Z	@1051
	?getCountry@Locale@icu_62@@QEBAPEBDXZ	@1052
	?getDecomposition@FilteredNormalizer2@icu_62@@UEBACHAEAVUnicodeString@2@@Z	@1053
	?getDecomposition@Normalizer2Impl@icu_62@@QEBAPEB_SHQEA_SAEAH@Z	@1054
	?getDefault@Locale@icu_62@@SAAEBV12@XZ	@1055
	?getDisplayCountry@Locale@icu_62@@QEBAAEAVUnicodeString@2@AEAV32@@Z	@1056
	?getDisplayCountry@Locale@icu_62@@QEBAAEAVUnicodeString@2@AEBV12@AEAV32@@Z	@1057
	?getDisplayLanguage@Locale@icu_62@@QEBAAEAVUnicodeString@2@AEAV32@@Z	@1058
	?getDisplayLanguage@Locale@icu_62@@QEBAAEAVUnicodeString@2@AEBV12@AEAV32@@Z	@1059
	?getDisplayName@BreakIterator@icu_62@@SAAEAVUnicodeString@2@AEBVLocale@2@0AEAV32@@Z	@1060
	?getDisplayName@BreakIterator@icu_62@@SAAEAVUnicodeString@2@AEBVLocale@2@AEAV32@@Z	@1061
	?getDisplayName@ICUService@icu_62@@QEBAAEAVUnicodeString@2@AEBV32@AEAV32@@Z	@1062
	?getDisplayName@ICUService@icu_62@@QEBAAEAVUnicodeString@2@AEBV32@AEAV32@AEBVLocale@2@@Z	@1063
	?getDisplayName@Locale@icu_62@@QEBAAEAVUnicodeString@2@AEAV32@@Z	@1064
	?getDisplayName@Locale@icu_62@@QEBAAEAVUnicodeString@2@AEBV12@AEAV32@@Z	@1065
	?getDisplayName@LocaleKeyFactory@icu_62@@UEBAAEAVUnicodeString@2@AEBV32@AEBVLocale@2@AEAV32@@Z	@1066
	?getDisplayName@SimpleFactory@icu_62@@UEBAAEAVUnicodeString@2@AEBV32@AEBVLocale@2@AEAV32@@Z	@1067
	?getDisplayNames@ICUService@icu_62@@QEBAAEAVUVector@2@AEAV32@AEAW4UErrorCode@@@Z	@1068
	?getDisplayNames@ICUService@icu_62@@QEBAAEAVUVector@2@AEAV32@AEBVLocale@2@AEAW4UErrorCode@@@Z	@1069
	?getDisplayNames@ICUService@icu_62@@QEBAAEAVUVector@2@AEAV32@AEBVLocale@2@PEBVUnicodeString@2@AEAW4UErrorCode@@@Z	@1070
	?getDisplayScript@Locale@icu_62@@QEBAAEAVUnicodeString@2@AEAV32@@Z	@1071
	?getDisplayScript@Locale@icu_62@@QEBAAEAVUnicodeString@2@AEBV12@AEAV32@@Z	@1072
	?getDisplayVariant@Locale@icu_62@@QEBAAEAVUnicodeString@2@AEAV32@@Z	@1073
	?getDisplayVariant@Locale@icu_62@@QEBAAEAVUnicodeString@2@AEBV12@AEAV32@@Z	@1074
	?getDynamicClassID@CanonicalIterator@icu_62@@UEBAPEAXXZ	@1075
	?getDynamicClassID@DateInterval@icu_62@@UEBAPEAXXZ	@1076
	?getDynamicClassID@EventListener@icu_62@@UEBAPEAXXZ	@1077
	?getDynamicClassID@ICUResourceBundleFactory@icu_62@@UEBAPEAXXZ	@1078
	?getDynamicClassID@ICUServiceKey@icu_62@@UEBAPEAXXZ	@1079
	?getDynamicClassID@Locale@icu_62@@UEBAPEAXXZ	@1080
	?getDynamicClassID@LocaleKey@icu_62@@UEBAPEAXXZ	@1081
	?getDynamicClassID@LocaleKeyFactory@icu_62@@UEBAPEAXXZ	@1082
	?getDynamicClassID@Normalizer@icu_62@@UEBAPEAXXZ	@1083
	?getDynamicClassID@ParsePosition@icu_62@@UEBAPEAXXZ	@1084
	?getDynamicClassID@ResourceBundle@icu_62@@UEBAPEAXXZ	@1085
	?getDynamicClassID@RuleBasedBreakIterator@icu_62@@UEBAPEAXXZ	@1086
	?getDynamicClassID@ServiceListener@icu_62@@UEBAPEAXXZ	@1087
	?getDynamicClassID@SimpleFactory@icu_62@@UEBAPEAXXZ	@1088
	?getDynamicClassID@SimpleLocaleKeyFactory@icu_62@@UEBAPEAXXZ	@1089
	?getDynamicClassID@StringCharacterIterator@icu_62@@UEBAPEAXXZ	@1090
	?getDynamicClassID@UCharCharacterIterator@icu_62@@UEBAPEAXXZ	@1091
	?getDynamicClassID@UObject@icu_62@@UEBAPEAXXZ	@1092
	?getDynamicClassID@UStack@icu_62@@UEBAPEAXXZ	@1093
	?getDynamicClassID@UStringEnumeration@icu_62@@UEBAPEAXXZ	@1094
	?getDynamicClassID@UVector32@icu_62@@UEBAPEAXXZ	@1095
	?getDynamicClassID@UVector64@icu_62@@UEBAPEAXXZ	@1096
	?getDynamicClassID@UVector@icu_62@@UEBAPEAXXZ	@1097
	?getDynamicClassID@UnicodeSet@icu_62@@UEBAPEAXXZ	@1098
	?getDynamicClassID@UnicodeSetIterator@icu_62@@UEBAPEAXXZ	@1099
	?getDynamicClassID@UnicodeString@icu_62@@UEBAPEAXXZ	@1100
	?getElementStringLength@BytesTrieBuilder@icu_62@@EEBAHH@Z	@1101
	?getElementStringLength@UCharsTrieBuilder@icu_62@@EEBAHH@Z	@1102
	?getElementUnit@BytesTrieBuilder@icu_62@@EEBA_SHH@Z	@1103
	?getElementUnit@UCharsTrieBuilder@icu_62@@EEBA_SHH@Z	@1104
	?getElementValue@BytesTrieBuilder@icu_62@@EEBAHH@Z	@1105
	?getElementValue@UCharsTrieBuilder@icu_62@@EEBAHH@Z	@1106
	?getEnglish@Locale@icu_62@@SAAEBV12@XZ	@1107
	?getEquivalents2@CanonicalIterator@icu_62@@AEAAPEAVHashtable@2@PEAV32@PEB_SHAEAW4UErrorCode@@@Z	@1108
	?getEquivalents@CanonicalIterator@icu_62@@AEAAPEAVUnicodeString@2@AEBV32@AEAHAEAW4UErrorCode@@@Z	@1109
	?getErrorIndex@ParsePosition@icu_62@@QEBAHXZ	@1110
	?getErrors@IDNAInfo@icu_62@@QEBAIXZ	@1111
	?getFCCInstance@Normalizer2Factory@icu_62@@SAPEBVNormalizer2@2@AEAW4UErrorCode@@@Z	@1112
	?getFCD16@Normalizer2Impl@icu_62@@QEBAGH@Z	@1113
	?getFCD16FromNormData@Normalizer2Impl@icu_62@@QEBAGH@Z	@1114
	?getFCDInstance@Normalizer2Factory@icu_62@@SAPEBVNormalizer2@2@AEAW4UErrorCode@@@Z	@1115
	?getFineChangesIterator@Edits@icu_62@@QEBA?AUIterator@12@XZ	@1116
	?getFineIterator@Edits@icu_62@@QEBA?AUIterator@12@XZ	@1117
	?getFrance@Locale@icu_62@@SAAEBV12@XZ	@1118
	?getFrench@Locale@icu_62@@SAAEBV12@XZ	@1119
	?getFromDate@DateInterval@icu_62@@QEBANXZ	@1120
	?getGerman@Locale@icu_62@@SAAEBV12@XZ	@1121
	?getGermany@Locale@icu_62@@SAAEBV12@XZ	@1122
	?getID@ICUServiceKey@icu_62@@UEBAAEBVUnicodeString@2@XZ	@1123
	?getISO3Country@Locale@icu_62@@QEBAPEBDXZ	@1124
	?getISO3Language@Locale@icu_62@@QEBAPEBDXZ	@1125
	?getISOCountries@Locale@icu_62@@SAPEBQEBDXZ	@1126
	?getISOLanguages@Locale@icu_62@@SAPEBQEBDXZ	@1127
	?getImpl@Normalizer2Factory@icu_62@@SAPEBVNormalizer2Impl@2@PEBVNormalizer2@2@@Z	@1128
	?getInclusions@UnicodeSet@icu_62@@CAPEBV12@HAEAW4UErrorCode@@@Z	@1129
	?getIndex@CharacterIterator@icu_62@@QEBAHXZ	@1130
	?getIndex@Normalizer@icu_62@@QEBAHXZ	@1131
	?getIndex@ParsePosition@icu_62@@QEBAHXZ	@1132
	?getInstance@Normalizer2@icu_62@@SAPEBV12@PEBD0W4UNormalization2Mode@@AEAW4UErrorCode@@@Z	@1133
	?getInstance@Normalizer2Factory@icu_62@@SAPEBVNormalizer2@2@W4UNormalizationMode@@AEAW4UErrorCode@@@Z	@1134
	?getInstance@UnifiedCache@icu_62@@SAPEAV12@AEAW4UErrorCode@@@Z	@1135
	?getInt@ResourceBundle@icu_62@@QEBAHAEAW4UErrorCode@@@Z	@1136
	?getIntVector@ResourceBundle@icu_62@@QEBAPEBHAEAHAEAW4UErrorCode@@@Z	@1137
	?getItalian@Locale@icu_62@@SAAEBV12@XZ	@1138
	?getItaly@Locale@icu_62@@SAAEBV12@XZ	@1139
	?getJapan@Locale@icu_62@@SAAEBV12@XZ	@1140
	?getJapanese@Locale@icu_62@@SAAEBV12@XZ	@1141
	?getKey@ICUService@icu_62@@QEBAPEAVUObject@2@AEAVICUServiceKey@2@AEAW4UErrorCode@@@Z	@1142
	?getKey@ICUService@icu_62@@QEBAPEAVUObject@2@AEAVICUServiceKey@2@PEAVUnicodeString@2@PEBVICUServiceFactory@2@AEAW4UErrorCode@@@Z	@1143
	?getKey@ICUService@icu_62@@UEBAPEAVUObject@2@AEAVICUServiceKey@2@PEAVUnicodeString@2@AEAW4UErrorCode@@@Z	@1144
	?getKey@ResourceBundle@icu_62@@QEBAPEBDXZ	@1145
	?getKeyAndValue@ResourceTable@icu_62@@QEBACHAEAPEBDAEAVResourceValue@2@@Z	@1146
	?getKeywordValue@Locale@icu_62@@QEBAHPEBDPEADHAEAW4UErrorCode@@@Z	@1147
	?getKorea@Locale@icu_62@@SAAEBV12@XZ	@1148
	?getKorean@Locale@icu_62@@SAAEBV12@XZ	@1149
	?getLCID@Locale@icu_62@@QEBAIXZ	@1150
	?getLanguage@Locale@icu_62@@QEBAPEBDXZ	@1151
	?getLanguageBreakEngine@RuleBasedBreakIterator@icu_62@@AEAAPEBVLanguageBreakEngine@2@H@Z	@1152
	?getLastCC@ReorderingBuffer@icu_62@@QEBAEXZ	@1153
	?getLength@CharacterIterator@icu_62@@QEBAHXZ	@1154
	?getLength@UnicodeString@icu_62@@MEBAHXZ	@1155
	?getLimit@ReorderingBuffer@icu_62@@QEAAPEA_SXZ	@1156
	?getLimitOfLinearMatch@BytesTrieBuilder@icu_62@@EEBAHHHH@Z	@1157
	?getLimitOfLinearMatch@UCharsTrieBuilder@icu_62@@EEBAHHHH@Z	@1158
	?getLimitPartIndex@MessagePattern@icu_62@@QEBAHH@Z	@1159
	?getListFormatInternal@ListFormatter@icu_62@@CAPEBUListFormatInternal@2@AEBVLocale@2@PEBDAEAW4UErrorCode@@@Z	@1160
	?getLocale@BreakIterator@icu_62@@QEBA?AVLocale@2@W4ULocDataLocaleType@@AEAW4UErrorCode@@@Z	@1161
	?getLocale@Locale@icu_62@@CAAEBV12@H@Z	@1162
	?getLocale@LocaleBased@icu_62@@QEBA?AVLocale@2@W4ULocDataLocaleType@@AEAW4UErrorCode@@@Z	@1163
	?getLocale@ResourceBundle@icu_62@@QEBA?BVLocale@2@W4ULocDataLocaleType@@AEAW4UErrorCode@@@Z	@1164
	?getLocale@ResourceBundle@icu_62@@QEBAAEBVLocale@2@XZ	@1165
	?getLocaleCache@Locale@icu_62@@CAPEAV12@XZ	@1166
	?getLocaleID@BreakIterator@icu_62@@QEBAPEBDW4ULocDataLocaleType@@AEAW4UErrorCode@@@Z	@1167
	?getLocaleID@LocaleBased@icu_62@@QEBAPEBDW4ULocDataLocaleType@@AEAW4UErrorCode@@@Z	@1168
	?getMapping@Normalizer2Impl@icu_62@@AEBAPEBGG@Z	@1169
	?getMaxBranchLinearSubNodeLength@BytesTrieBuilder@icu_62@@EEBAHXZ	@1170
	?getMaxBranchLinearSubNodeLength@UCharsTrieBuilder@icu_62@@EEBAHXZ	@1171
	?getMaxLinearMatchLength@BytesTrieBuilder@icu_62@@EEBAHXZ	@1172
	?getMaxLinearMatchLength@UCharsTrieBuilder@icu_62@@EEBAHXZ	@1173
	?getMinLinearMatch@BytesTrieBuilder@icu_62@@EEBAHXZ	@1174
	?getMinLinearMatch@UCharsTrieBuilder@icu_62@@EEBAHXZ	@1175
	?getNFCImpl@Normalizer2Factory@icu_62@@SAPEBVNormalizer2Impl@2@AEAW4UErrorCode@@@Z	@1176
	?getNFCInstance@Normalizer2@icu_62@@SAPEBV12@AEAW4UErrorCode@@@Z	@1177
	?getNFDInstance@Normalizer2@icu_62@@SAPEBV12@AEAW4UErrorCode@@@Z	@1178
	?getNFKCCasefoldInstance@Normalizer2@icu_62@@SAPEBV12@AEAW4UErrorCode@@@Z	@1179
	?getNFKCImpl@Normalizer2Factory@icu_62@@SAPEBVNormalizer2Impl@2@AEAW4UErrorCode@@@Z	@1180
	?getNFKCInstance@Normalizer2@icu_62@@SAPEBV12@AEAW4UErrorCode@@@Z	@1181
	?getNFKC_CFImpl@Normalizer2Factory@icu_62@@SAPEBVNormalizer2Impl@2@AEAW4UErrorCode@@@Z	@1182
	?getNFKDInstance@Normalizer2@icu_62@@SAPEBV12@AEAW4UErrorCode@@@Z	@1183
	?getName@ICUService@icu_62@@QEBAAEAVUnicodeString@2@AEAV32@@Z	@1184
	?getName@Locale@icu_62@@QEBAPEBDXZ	@1185
	?getName@ResourceBundle@icu_62@@QEBAPEBDXZ	@1186
	?getNext@ResourceBundle@icu_62@@QEAA?AV12@AEAW4UErrorCode@@@Z	@1187
	?getNextBranchBytes@BytesTrie@icu_62@@CAXPEBEHAEAVByteSink@2@@Z	@1188
	?getNextBranchUChars@UCharsTrie@icu_62@@CAXPEB_SHAEAVAppendable@2@@Z	@1189
	?getNextBytes@BytesTrie@icu_62@@QEBAHAEAVByteSink@2@@Z	@1190
	?getNextString@ResourceBundle@icu_62@@QEAA?AVUnicodeString@2@AEAW4UErrorCode@@@Z	@1191
	?getNextString@ResourceBundle@icu_62@@QEAA?AVUnicodeString@2@PEAPEBDAEAW4UErrorCode@@@Z	@1192
	?getNextUChars@UCharsTrie@icu_62@@QEBAHAEAVAppendable@2@@Z	@1193
	?getNoopInstance@Normalizer2Factory@icu_62@@SAPEBVNormalizer2@2@AEAW4UErrorCode@@@Z	@1194
	?getNorm16@Normalizer2Impl@icu_62@@QEBAGH@Z	@1195
	?getNumericValue@MessagePattern@icu_62@@QEBANAEBVPart@12@@Z	@1196
	?getOption@Normalizer@icu_62@@QEBACH@Z	@1197
	?getPRC@Locale@icu_62@@SAAEBV12@XZ	@1198
	?getPart@MessagePattern@icu_62@@QEBAAEBVPart@12@H@Z	@1199
	?getPartType@MessagePattern@icu_62@@QEBA?AW4UMessagePatternPartType@@H@Z	@1200
	?getPatternIndex@MessagePattern@icu_62@@QEBAHH@Z	@1201
	?getPatternString@MessagePattern@icu_62@@QEBAAEBVUnicodeString@2@XZ	@1202
	?getPluralOffset@MessagePattern@icu_62@@QEBANH@Z	@1203
	?getPreviousTrailCC@Normalizer2Impl@icu_62@@AEBAEPEBE0@Z	@1204
	?getPreviousTrailCC@Normalizer2Impl@icu_62@@AEBAEPEB_S0@Z	@1205
	?getRangeCount@UnicodeSet@icu_62@@UEBAHXZ	@1206
	?getRangeEnd@UnicodeSet@icu_62@@UEBAHH@Z	@1207
	?getRangeStart@UnicodeSet@icu_62@@UEBAHH@Z	@1208
	?getRawDecomposition@FilteredNormalizer2@icu_62@@UEBACHAEAVUnicodeString@2@@Z	@1209
	?getRawDecomposition@Hangul@icu_62@@SAXHQEA_S@Z	@1210
	?getRawDecomposition@Normalizer2@icu_62@@UEBACHAEAVUnicodeString@2@@Z	@1211
	?getRawDecomposition@Normalizer2Impl@icu_62@@QEBAPEB_SHQEA_SAEAH@Z	@1212
	?getRefCount@SharedObject@icu_62@@QEBAHXZ	@1213
	?getRoot@Locale@icu_62@@SAAEBV12@XZ	@1214
	?getRuleStatus@BreakIterator@icu_62@@UEBAHXZ	@1215
	?getRuleStatus@RuleBasedBreakIterator@icu_62@@UEBAHXZ	@1216
	?getRuleStatusVec@BreakIterator@icu_62@@UEAAHPEAHHAEAW4UErrorCode@@@Z	@1217
	?getRuleStatusVec@RuleBasedBreakIterator@icu_62@@UEAAHPEAHHAEAW4UErrorCode@@@Z	@1218
	?getRules@RuleBasedBreakIterator@icu_62@@UEBAAEBVUnicodeString@2@XZ	@1219
	?getScript@Locale@icu_62@@QEBAPEBDXZ	@1220
	?getShortLength@UnicodeString@icu_62@@AEBAHXZ	@1221
	?getSimplifiedChinese@Locale@icu_62@@SAAEBV12@XZ	@1222
	?getSingleCP@UnicodeSet@icu_62@@CAHAEBVUnicodeString@2@@Z	@1223
	?getSize@ResourceArray@icu_62@@QEBAHXZ	@1224
	?getSize@ResourceBundle@icu_62@@QEBAHXZ	@1225
	?getSize@ResourceTable@icu_62@@QEBAHXZ	@1226
	?getSource@CanonicalIterator@icu_62@@QEAA?AVUnicodeString@2@XZ	@1227
	?getStart@ReorderingBuffer@icu_62@@QEAAPEA_SXZ	@1228
	?getStaticClassID@CanonicalIterator@icu_62@@SAPEAXXZ	@1229
	?getStaticClassID@DateInterval@icu_62@@SAPEAXXZ	@1230
	?getStaticClassID@EventListener@icu_62@@SAPEAXXZ	@1231
	?getStaticClassID@ICUResourceBundleFactory@icu_62@@SAPEAXXZ	@1232
	?getStaticClassID@ICUServiceKey@icu_62@@SAPEAXXZ	@1233
	?getStaticClassID@Locale@icu_62@@SAPEAXXZ	@1234
	?getStaticClassID@LocaleKey@icu_62@@SAPEAXXZ	@1235
	?getStaticClassID@LocaleKeyFactory@icu_62@@SAPEAXXZ	@1236
	?getStaticClassID@Normalizer@icu_62@@SAPEAXXZ	@1237
	?getStaticClassID@ParsePosition@icu_62@@SAPEAXXZ	@1238
	?getStaticClassID@ResourceBundle@icu_62@@SAPEAXXZ	@1239
	?getStaticClassID@RuleBasedBreakIterator@icu_62@@SAPEAXXZ	@1240
	?getStaticClassID@ServiceListener@icu_62@@SAPEAXXZ	@1241
	?getStaticClassID@SimpleFactory@icu_62@@SAPEAXXZ	@1242
	?getStaticClassID@SimpleLocaleKeyFactory@icu_62@@SAPEAXXZ	@1243
	?getStaticClassID@StringCharacterIterator@icu_62@@SAPEAXXZ	@1244
	?getStaticClassID@UCharCharacterIterator@icu_62@@SAPEAXXZ	@1245
	?getStaticClassID@UStack@icu_62@@SAPEAXXZ	@1246
	?getStaticClassID@UStringEnumeration@icu_62@@SAPEAXXZ	@1247
	?getStaticClassID@UVector32@icu_62@@SAPEAXXZ	@1248
	?getStaticClassID@UVector64@icu_62@@SAPEAXXZ	@1249
	?getStaticClassID@UVector@icu_62@@SAPEAXXZ	@1250
	?getStaticClassID@UnicodeFilter@icu_62@@SAPEAXXZ	@1251
	?getStaticClassID@UnicodeFunctor@icu_62@@SAPEAXXZ	@1252
	?getStaticClassID@UnicodeSet@icu_62@@SAPEAXXZ	@1253
	?getStaticClassID@UnicodeSetIterator@icu_62@@SAPEAXXZ	@1254
	?getStaticClassID@UnicodeString@icu_62@@SAPEAXXZ	@1255
	?getString@Iterator@BytesTrie@icu_62@@QEBA?AVStringPiece@3@XZ	@1256
	?getString@Iterator@UCharsTrie@icu_62@@QEBAAEBVUnicodeString@3@XZ	@1257
	?getString@ResourceBundle@icu_62@@QEBA?AVUnicodeString@2@AEAW4UErrorCode@@@Z	@1258
	?getString@UnicodeSet@icu_62@@AEBAPEBVUnicodeString@2@H@Z	@1259
	?getString@UnicodeSetIterator@icu_62@@QEAAAEBVUnicodeString@2@XZ	@1260
	?getStringAt@UStringSet@icu_62@@QEBAPEBVUnicodeString@2@H@Z	@1261
	?getStringCount@UnicodeSet@icu_62@@AEBAHXZ	@1262
	?getStringEx@ResourceBundle@icu_62@@QEBA?AVUnicodeString@2@HAEAW4UErrorCode@@@Z	@1263
	?getStringEx@ResourceBundle@icu_62@@QEBA?AVUnicodeString@2@PEBDAEAW4UErrorCode@@@Z	@1264
	?getSubstring@MessagePattern@icu_62@@QEBA?AVUnicodeString@2@AEBVPart@12@@Z	@1265
	?getSupportedIDs@ICUResourceBundleFactory@icu_62@@MEBAPEBVHashtable@2@AEAW4UErrorCode@@@Z	@1266
	?getSupportedIDs@LocaleKeyFactory@icu_62@@MEBAPEBVHashtable@2@AEAW4UErrorCode@@@Z	@1267
	?getTaiwan@Locale@icu_62@@SAAEBV12@XZ	@1268
	?getTerminatedBuffer@UnicodeString@icu_62@@QEAAPEB_SXZ	@1269
	?getText@Normalizer@icu_62@@QEAAXAEAVUnicodeString@2@@Z	@1270
	?getText@RuleBasedBreakIterator@icu_62@@UEBAAEAVCharacterIterator@2@XZ	@1271
	?getText@StringCharacterIterator@icu_62@@UEAAXAEAVUnicodeString@2@@Z	@1272
	?getText@UCharCharacterIterator@icu_62@@UEAAXAEAVUnicodeString@2@@Z	@1273
	?getTextWithNoArguments@SimpleFormatter@icu_62@@CA?AVUnicodeString@2@PEB_SH@Z	@1274
	?getTextWithNoArguments@SimpleFormatter@icu_62@@QEBA?AVUnicodeString@2@XZ	@1275
	?getTimestamp@ICUService@icu_62@@IEBAHXZ	@1276
	?getToDate@DateInterval@icu_62@@QEBANXZ	@1277
	?getTraditionalChinese@Locale@icu_62@@SAAEBV12@XZ	@1278
	?getTrailCCFromCompYesAndZeroCC@Normalizer2Impl@icu_62@@AEBAEG@Z	@1279
	?getType@BytesDictionaryMatcher@icu_62@@UEBAHXZ	@1280
	?getType@ResourceBundle@icu_62@@QEBA?AW4UResType@@XZ	@1281
	?getType@UCharsDictionaryMatcher@icu_62@@UEBAHXZ	@1282
	?getUInt@ResourceBundle@icu_62@@QEBAIAEAW4UErrorCode@@@Z	@1283
	?getUK@Locale@icu_62@@SAAEBV12@XZ	@1284
	?getUMode@Normalizer@icu_62@@QEBA?AW4UNormalizationMode@@XZ	@1285
	?getUS@Locale@icu_62@@SAAEBV12@XZ	@1286
	?getUText@RuleBasedBreakIterator@icu_62@@UEBAPEAUUText@@PEAU3@AEAW4UErrorCode@@@Z	@1287
	?getUnicodeString@ResourceValue@icu_62@@QEBA?AVUnicodeString@2@AEAW4UErrorCode@@@Z	@1288
	?getValue@BytesTrie@icu_62@@QEBAHXZ	@1289
	?getValue@Iterator@BytesTrie@icu_62@@QEBAHXZ	@1290
	?getValue@Iterator@UCharsTrie@icu_62@@QEBAHXZ	@1291
	?getValue@ResourceArray@icu_62@@QEBACHAEAVResourceValue@2@@Z	@1292
	?getValue@UCharsTrie@icu_62@@QEBAHXZ	@1293
	?getVariant@Locale@icu_62@@QEBAPEBDXZ	@1294
	?getVersion@ResourceBundle@icu_62@@QEBAXQEAE@Z	@1295
	?getVersionNumber@ResourceBundle@icu_62@@QEBAPEBDXZ	@1296
	?getVisibleIDMap@ICUService@icu_62@@IEBAPEBVHashtable@2@AEAW4UErrorCode@@@Z	@1297
	?getVisibleIDs@ICUService@icu_62@@QEBAAEAVUVector@2@AEAV32@AEAW4UErrorCode@@@Z	@1298
	?getVisibleIDs@ICUService@icu_62@@QEBAAEAVUVector@2@AEAV32@PEBVUnicodeString@2@AEAW4UErrorCode@@@Z	@1299
	?getWithFallback@ResourceBundle@icu_62@@QEAA?AV12@PEBDAEAW4UErrorCode@@@Z	@1300
	?geti@Hashtable@icu_62@@QEBAHAEBVUnicodeString@2@@Z	@1301
	?growArray@Edits@icu_62@@AEAACXZ	@1302
	?handleCreate@ICUResourceBundleFactory@icu_62@@MEBAPEAVUObject@2@AEBVLocale@2@HPEBVICUService@2@AEAW4UErrorCode@@@Z	@1303
	?handleCreate@LocaleKeyFactory@icu_62@@MEBAPEAVUObject@2@AEBVLocale@2@HPEBVICUService@2@AEAW4UErrorCode@@@Z	@1304
	?handleDefault@ICUService@icu_62@@MEBAPEAVUObject@2@AEBVICUServiceKey@2@PEAVUnicodeString@2@AEAW4UErrorCode@@@Z	@1305
	?handleFailure@ErrorCode@icu_62@@MEBAXXZ	@1306
	?handleNext@RuleBasedBreakIterator@icu_62@@AEAAHXZ	@1307
	?handleReplaceBetween@UnicodeString@icu_62@@UEAAXHHAEBV12@@Z	@1308
	?handleSafePrevious@RuleBasedBreakIterator@icu_62@@AEAAHH@Z	@1309
	?handleUnreferencedObject@UnifiedCache@icu_62@@UEBAXXZ	@1310
	?handlesKey@LocaleKeyFactory@icu_62@@MEBACAEBVICUServiceKey@2@AEAW4UErrorCode@@@Z	@1311
	?hangulLVT@Normalizer2Impl@icu_62@@AEBAGXZ	@1312
	?hasBoundaryAfter@FilteredNormalizer2@icu_62@@UEBACH@Z	@1313
	?hasBoundaryBefore@FilteredNormalizer2@icu_62@@UEBACH@Z	@1314
	?hasChange@Iterator@Edits@icu_62@@QEBACXZ	@1315
	?hasChanges@Edits@icu_62@@QEBACXZ	@1316
	?hasCompBoundaryAfter@Normalizer2Impl@icu_62@@AEBACPEBE0C@Z	@1317
	?hasCompBoundaryAfter@Normalizer2Impl@icu_62@@AEBACPEB_S0C@Z	@1318
	?hasCompBoundaryAfter@Normalizer2Impl@icu_62@@QEBACHC@Z	@1319
	?hasCompBoundaryBefore@Normalizer2Impl@icu_62@@AEBACHG@Z	@1320
	?hasCompBoundaryBefore@Normalizer2Impl@icu_62@@AEBACPEBE0@Z	@1321
	?hasCompBoundaryBefore@Normalizer2Impl@icu_62@@AEBACPEB_S0@Z	@1322
	?hasCompBoundaryBefore@Normalizer2Impl@icu_62@@QEBACH@Z	@1323
	?hasDecompBoundaryAfter@Normalizer2Impl@icu_62@@QEBACH@Z	@1324
	?hasDecompBoundaryBefore@Normalizer2Impl@icu_62@@QEBACH@Z	@1325
	?hasErrors@IDNAInfo@icu_62@@QEBACXZ	@1326
	?hasFCDBoundaryAfter@Normalizer2Impl@icu_62@@QEBACH@Z	@1327
	?hasFCDBoundaryBefore@Normalizer2Impl@icu_62@@QEBACH@Z	@1328
	?hasHardReferences@SharedObject@icu_62@@QEBACXZ	@1329
	?hasMetaData@Replaceable@icu_62@@UEBACXZ	@1330
	?hasMetaData@UnicodeString@icu_62@@UEBACXZ	@1331
	?hasMoreChar32Than@UnicodeString@icu_62@@QEBACHHH@Z	@1332
	?hasNamedArguments@MessagePattern@icu_62@@QEBACXZ	@1333
	?hasNext@Iterator@BytesTrie@icu_62@@QEBACXZ	@1334
	?hasNext@Iterator@UCharsTrie@icu_62@@QEBACXZ	@1335
	?hasNext@ResourceBundle@icu_62@@QEBACXZ	@1336
	?hasNext@UCharCharacterIterator@icu_62@@UEAACXZ	@1337
	?hasNumberedArguments@MessagePattern@icu_62@@QEBACXZ	@1338
	?hasPrevious@UCharCharacterIterator@icu_62@@UEAACXZ	@1339
	?hasShortLength@UnicodeString@icu_62@@AEBACXZ	@1340
	?hasUniqueValue@BytesTrie@icu_62@@QEBACAEAH@Z	@1341
	?hasUniqueValue@UCharsTrie@icu_62@@QEBACAEAH@Z	@1342
	?hashCode@Locale@icu_62@@QEBAHXZ	@1343
	?hashCode@MessagePattern@icu_62@@QEBAHXZ	@1344
	?hashCode@Normalizer@icu_62@@QEBAHXZ	@1345
	?hashCode@RuleBasedBreakIterator@icu_62@@UEBAHXZ	@1346
	?hashCode@UCharCharacterIterator@icu_62@@UEBAHXZ	@1347
	?hashCode@UnicodeSet@icu_62@@UEBAHXZ	@1348
	?hashCode@UnicodeString@icu_62@@QEBAHXZ	@1349
	?hashNode@StringTrieBuilder@icu_62@@SACPEBX@Z	@1350
	?inMessageFormatPattern@MessagePattern@icu_62@@AEAACH@Z	@1351
	?inTopLevelChoiceMessage@MessagePattern@icu_62@@AEAACHW4UMessagePatternArgType@@@Z	@1352
	?indexOf@UVector32@icu_62@@QEBAHHH@Z	@1353
	?indexOf@UVector@icu_62@@AEBAHTUElement@@HC@Z	@1354
	?indexOf@UVector@icu_62@@QEBAHHH@Z	@1355
	?indexOf@UVector@icu_62@@QEBAHPEAXH@Z	@1356
	?indexOf@UnicodeSet@icu_62@@QEBAHH@Z	@1357
	?indexOf@UnicodeString@icu_62@@QEBAHAEBV12@@Z	@1358
	?indexOf@UnicodeString@icu_62@@QEBAHAEBV12@H@Z	@1359
	?indexOf@UnicodeString@icu_62@@QEBAHAEBV12@HH@Z	@1360
	?indexOf@UnicodeString@icu_62@@QEBAHAEBV12@HHHH@Z	@1361
	?indexOf@UnicodeString@icu_62@@QEBAHH@Z	@1362
	?indexOf@UnicodeString@icu_62@@QEBAHHH@Z	@1363
	?indexOf@UnicodeString@icu_62@@QEBAHHHH@Z	@1364
	?indexOf@UnicodeString@icu_62@@QEBAHPEB_SHH@Z	@1365
	?indexOf@UnicodeString@icu_62@@QEBAHPEB_SHHHH@Z	@1366
	?indexOf@UnicodeString@icu_62@@QEBAHVConstChar16Ptr@2@HHH@Z	@1367
	?indexOf@UnicodeString@icu_62@@QEBAH_S@Z	@1368
	?indexOf@UnicodeString@icu_62@@QEBAH_SH@Z	@1369
	?indexOf@UnicodeString@icu_62@@QEBAH_SHH@Z	@1370
	?indexOfElementWithNextUnit@BytesTrieBuilder@icu_62@@EEBAHHH_S@Z	@1371
	?indexOfElementWithNextUnit@UCharsTrieBuilder@icu_62@@EEBAHHH_S@Z	@1372
	?init@Hashtable@icu_62@@AEAAXP6AHTUElement@@@ZP6AC00@Z2AEAW4UErrorCode@@@Z	@1373
	?init@Locale@icu_62@@AEAAAEAV12@PEBDC@Z	@1374
	?init@MessagePattern@icu_62@@AEAACAEAW4UErrorCode@@@Z	@1375
	?init@Normalizer2Impl@icu_62@@QEAAXPEBHPEBUUTrie2@@PEBGPEBE@Z	@1376
	?init@Normalizer@icu_62@@AEAAXXZ	@1377
	?init@ReorderingBuffer@icu_62@@QEAACHAEAW4UErrorCode@@@Z	@1378
	?init@RuleBasedBreakIterator@icu_62@@AEAAXAEAW4UErrorCode@@@Z	@1379
	?initBaseName@Locale@icu_62@@AEAAXAEAW4UErrorCode@@@Z	@1380
	?initLocaleFromName@LocaleUtility@icu_62@@SAAEAVLocale@2@AEBVUnicodeString@2@AEAV32@@Z	@1381
	?initNameFromLocale@LocaleUtility@icu_62@@SAAEAVUnicodeString@2@AEBVLocale@2@AEAV32@@Z	@1382
	?initSize@Hashtable@icu_62@@AEAAXP6AHTUElement@@@ZP6AC00@Z2HAEAW4UErrorCode@@@Z	@1383
	?initializeHash@ListFormatter@icu_62@@CAXAEAW4UErrorCode@@@Z	@1384
	?insert@ReorderingBuffer@icu_62@@AEAAXHE@Z	@1385
	?insert@UnicodeString@icu_62@@QEAAAEAV12@HAEBV12@@Z	@1386
	?insert@UnicodeString@icu_62@@QEAAAEAV12@HAEBV12@HH@Z	@1387
	?insert@UnicodeString@icu_62@@QEAAAEAV12@HH@Z	@1388
	?insert@UnicodeString@icu_62@@QEAAAEAV12@HPEB_SHH@Z	@1389
	?insert@UnicodeString@icu_62@@QEAAAEAV12@HVConstChar16Ptr@2@H@Z	@1390
	?insert@UnicodeString@icu_62@@QEAAAEAV12@H_S@Z	@1391
	?insertElementAt@UVector32@icu_62@@QEAAXHHAEAW4UErrorCode@@@Z	@1392
	?insertElementAt@UVector64@icu_62@@QEAAX_JHAEAW4UErrorCode@@@Z	@1393
	?insertElementAt@UVector@icu_62@@QEAAXHHAEAW4UErrorCode@@@Z	@1394
	?insertElementAt@UVector@icu_62@@QEAAXPEAXHAEAW4UErrorCode@@@Z	@1395
	?internalGetResource@ResourceArray@icu_62@@QEBAIPEBUResourceData@@H@Z	@1396
	?isAlgorithmicNoNo@Normalizer2Impl@icu_62@@QEBACG@Z	@1397
	?isArgTypeChar@MessagePattern@icu_62@@CACH@Z	@1398
	?isBogus@Locale@icu_62@@QEBACXZ	@1399
	?isBogus@StringPair@icu_62@@QEBACXZ	@1400
	?isBogus@UnicodeSet@icu_62@@QEBACXZ	@1401
	?isBogus@UnicodeString@icu_62@@QEBACXZ	@1402
	?isBoundary@RuleBasedBreakIterator@icu_62@@UEAACH@Z	@1403
	?isBufferClone@BreakIterator@icu_62@@QEAACXZ	@1404
	?isBufferWritable@UnicodeString@icu_62@@AEBACXZ	@1405
	?isCanonSegmentStarter@Normalizer2Impl@icu_62@@QEBACH@Z	@1406
	?isChoice@MessagePattern@icu_62@@AEAACH@Z	@1407
	?isCompInert@Normalizer2Impl@icu_62@@QEBACHC@Z	@1408
	?isCompNo@Normalizer2Impl@icu_62@@QEBACG@Z	@1409
	?isCompYesAndZeroCC@Normalizer2Impl@icu_62@@AEBACG@Z	@1410
	?isDecompInert@Normalizer2Impl@icu_62@@QEBACH@Z	@1411
	?isDecompNoAlgorithmic@Normalizer2Impl@icu_62@@AEBACG@Z	@1412
	?isDecompYes@Normalizer2Impl@icu_62@@QEBACG@Z	@1413
	?isDecompYesAndZeroCC@Normalizer2Impl@icu_62@@AEBACG@Z	@1414
	?isDefault@ICUService@icu_62@@UEBACXZ	@1415
	?isEmpty@CharString@icu_62@@QEBACXZ	@1416
	?isEmpty@ReorderingBuffer@icu_62@@QEBACXZ	@1417
	?isEmpty@UVector32@icu_62@@QEBACXZ	@1418
	?isEmpty@UVector64@icu_62@@QEBACXZ	@1419
	?isEmpty@UVector@icu_62@@QEBACXZ	@1420
	?isEmpty@UnicodeSet@icu_62@@UEBACXZ	@1421
	?isEmpty@UnicodeString@icu_62@@QEBACXZ	@1422
	?isFCDInert@Normalizer2Impl@icu_62@@QEBACH@Z	@1423
	?isFailure@ErrorCode@icu_62@@QEBACXZ	@1424
	?isFallbackOf@ICUServiceKey@icu_62@@UEBACAEBVUnicodeString@2@@Z	@1425
	?isFallbackOf@LocaleKey@icu_62@@UEBACAEBVUnicodeString@2@@Z	@1426
	?isFallbackOf@LocaleUtility@icu_62@@SACAEBVUnicodeString@2@0@Z	@1427
	?isFrozen@UnicodeSet@icu_62@@QEBACXZ	@1428
	?isHangul@Hangul@icu_62@@SACH@Z	@1429
	?isHangulLV@Hangul@icu_62@@SACH@Z	@1430
	?isHangulLV@Normalizer2Impl@icu_62@@AEBACG@Z	@1431
	?isHangulLVT@Normalizer2Impl@icu_62@@AEBACG@Z	@1432
	?isIdentifier@PatternProps@icu_62@@SACPEB_SH@Z	@1433
	?isInert@FilteredNormalizer2@icu_62@@UEBACH@Z	@1434
	?isInert@Normalizer2Impl@icu_62@@CACG@Z	@1435
	?isJamo@Hangul@icu_62@@SACH@Z	@1436
	?isJamoL@Hangul@icu_62@@SACH@Z	@1437
	?isJamoL@Normalizer2Impl@icu_62@@CACG@Z	@1438
	?isJamoT@Hangul@icu_62@@SACH@Z	@1439
	?isJamoV@Hangul@icu_62@@SACH@Z	@1440
	?isJamoVT@Normalizer2Impl@icu_62@@CACG@Z	@1441
	?isMaybe@Normalizer2Impl@icu_62@@AEBACG@Z	@1442
	?isMaybeOrNonZeroCC@Normalizer2Impl@icu_62@@AEBACG@Z	@1443
	?isMostDecompYesAndZeroCC@Normalizer2Impl@icu_62@@AEBACG@Z	@1444
	?isNormalized@FilteredNormalizer2@icu_62@@UEBACAEBVUnicodeString@2@AEAW4UErrorCode@@@Z	@1445
	?isNormalized@Normalizer@icu_62@@SACAEBVUnicodeString@2@W4UNormalizationMode@@AEAW4UErrorCode@@@Z	@1446
	?isNormalized@Normalizer@icu_62@@SACAEBVUnicodeString@2@W4UNormalizationMode@@HAEAW4UErrorCode@@@Z	@1447
	?isNormalizedUTF8@FilteredNormalizer2@icu_62@@UEBACVStringPiece@2@AEAW4UErrorCode@@@Z	@1448
	?isNormalizedUTF8@Normalizer2@icu_62@@UEBACVStringPiece@2@AEAW4UErrorCode@@@Z	@1449
	?isOrdinal@MessagePattern@icu_62@@AEAACH@Z	@1450
	?isPlural@MessagePattern@icu_62@@AEAACH@Z	@1451
	?isRightToLeft@Locale@icu_62@@QEBACXZ	@1452
	?isSelect@MessagePattern@icu_62@@AEAACH@Z	@1453
	?isString@UnicodeSetIterator@icu_62@@QEBACXZ	@1454
	?isSuccess@ErrorCode@icu_62@@QEBACXZ	@1455
	?isSyntax@PatternProps@icu_62@@SACH@Z	@1456
	?isSyntaxOrWhiteSpace@PatternProps@icu_62@@SACH@Z	@1457
	?isTrailCC01ForCompBoundaryAfter@Normalizer2Impl@icu_62@@AEBACG@Z	@1458
	?isTransitionalDifferent@IDNAInfo@icu_62@@QEBACXZ	@1459
	?isUnprintable@ICU_Utility@icu_62@@SACH@Z	@1460
	?isWhiteSpace@PatternProps@icu_62@@SACH@Z	@1461
	?isWritable@UnicodeString@icu_62@@AEBACXZ	@1462
	?jdkAposMode@MessageImpl@icu_62@@SACAEBVMessagePattern@2@@Z	@1463
	?jumpByDelta@BytesTrie@icu_62@@CAPEBEPEBE@Z	@1464
	?jumpByDelta@UCharsTrie@icu_62@@CAPEB_SPEB_S@Z	@1465
	?kDatasetGraphKey@DatasetBase@data@tensorflow@@2QBDB	@1466
	?kDatasetGraphOutputNodeKey@DatasetBase@data@tensorflow@@2QBDB	@1467
	?kFiveByteDeltaLead@BytesTrie@icu_62@@0HB	@1468
	?kFiveByteValueLead@BytesTrie@icu_62@@0HB	@1469
	?kFourByteDeltaLead@BytesTrie@icu_62@@0HB	@1470
	?kFourByteValueLead@BytesTrie@icu_62@@0HB	@1471
	?kMaxBranchLinearSubNodeLength@BytesTrie@icu_62@@0HB	@1472
	?kMaxBranchLinearSubNodeLength@StringTrieBuilder@icu_62@@1HB	@1473
	?kMaxBranchLinearSubNodeLength@UCharsTrie@icu_62@@0HB	@1474
	?kMaxLinearMatchLength@BytesTrie@icu_62@@0HB	@1475
	?kMaxLinearMatchLength@UCharsTrie@icu_62@@0HB	@1476
	?kMaxOneByteDelta@BytesTrie@icu_62@@0HB	@1477
	?kMaxOneByteValue@BytesTrie@icu_62@@0HB	@1478
	?kMaxOneUnitDelta@UCharsTrie@icu_62@@0HB	@1479
	?kMaxOneUnitNodeValue@UCharsTrie@icu_62@@0HB	@1480
	?kMaxOneUnitValue@UCharsTrie@icu_62@@0HB	@1481
	?kMaxSplitBranchLevels@StringTrieBuilder@icu_62@@1HB	@1482
	?kMaxThreeByteDelta@BytesTrie@icu_62@@0HB	@1483
	?kMaxThreeByteValue@BytesTrie@icu_62@@0HB	@1484
	?kMaxTwoByteDelta@BytesTrie@icu_62@@0HB	@1485
	?kMaxTwoByteValue@BytesTrie@icu_62@@0HB	@1486
	?kMaxTwoUnitDelta@UCharsTrie@icu_62@@0HB	@1487
	?kMaxTwoUnitNodeValue@UCharsTrie@icu_62@@0HB	@1488
	?kMaxTwoUnitValue@UCharsTrie@icu_62@@0HB	@1489
	?kMinLinearMatch@BytesTrie@icu_62@@0HB	@1490
	?kMinLinearMatch@UCharsTrie@icu_62@@0HB	@1491
	?kMinOneByteValueLead@BytesTrie@icu_62@@0HB	@1492
	?kMinThreeByteDeltaLead@BytesTrie@icu_62@@0HB	@1493
	?kMinThreeByteValueLead@BytesTrie@icu_62@@0HB	@1494
	?kMinTwoByteDeltaLead@BytesTrie@icu_62@@0HB	@1495
	?kMinTwoByteValueLead@BytesTrie@icu_62@@0HB	@1496
	?kMinTwoUnitDeltaLead@UCharsTrie@icu_62@@0HB	@1497
	?kMinTwoUnitNodeValueLead@UCharsTrie@icu_62@@0HB	@1498
	?kMinTwoUnitValueLead@UCharsTrie@icu_62@@0HB	@1499
	?kMinValueLead@BytesTrie@icu_62@@0HB	@1500
	?kMinValueLead@UCharsTrie@icu_62@@0HB	@1501
	?kNodeTypeMask@UCharsTrie@icu_62@@0HB	@1502
	?kThreeUnitDeltaLead@UCharsTrie@icu_62@@0HB	@1503
	?kThreeUnitNodeValueLead@UCharsTrie@icu_62@@0HB	@1504
	?kThreeUnitValueLead@UCharsTrie@icu_62@@0HB	@1505
	?kValueIsFinal@BytesTrie@icu_62@@0HB	@1506
	?kValueIsFinal@UCharsTrie@icu_62@@0HB	@1507
	?keyCount@UnifiedCache@icu_62@@QEBAHXZ	@1508
	?kind@LocaleKey@icu_62@@UEBAHXZ	@1509
	?labelToASCII_UTF8@IDNA@icu_62@@UEBAXVStringPiece@2@AEAVByteSink@2@AEAVIDNAInfo@2@AEAW4UErrorCode@@@Z	@1510
	?labelToUnicodeUTF8@IDNA@icu_62@@UEBAXVStringPiece@2@AEAVByteSink@2@AEAVIDNAInfo@2@AEAW4UErrorCode@@@Z	@1511
	?last32@UCharCharacterIterator@icu_62@@UEAAHXZ	@1512
	?last@Normalizer@icu_62@@QEAAHXZ	@1513
	?last@RuleBasedBreakIterator@icu_62@@UEAAHXZ	@1514
	?last@UCharCharacterIterator@icu_62@@UEAA_SXZ	@1515
	?lastElement@UVector@icu_62@@QEBAPEAXXZ	@1516
	?lastElementi@UVector32@icu_62@@QEBAHXZ	@1517
	?lastElementi@UVector64@icu_62@@QEBA_JXZ	@1518
	?lastElementi@UVector@icu_62@@QEBAHXZ	@1519
	?lastIndexOf@CharString@icu_62@@QEBAHD@Z	@1520
	?lastIndexOf@UnicodeString@icu_62@@QEBAHAEBV12@@Z	@1521
	?lastIndexOf@UnicodeString@icu_62@@QEBAHAEBV12@H@Z	@1522
	?lastIndexOf@UnicodeString@icu_62@@QEBAHAEBV12@HH@Z	@1523
	?lastIndexOf@UnicodeString@icu_62@@QEBAHAEBV12@HHHH@Z	@1524
	?lastIndexOf@UnicodeString@icu_62@@QEBAHH@Z	@1525
	?lastIndexOf@UnicodeString@icu_62@@QEBAHHH@Z	@1526
	?lastIndexOf@UnicodeString@icu_62@@QEBAHHHH@Z	@1527
	?lastIndexOf@UnicodeString@icu_62@@QEBAHPEB_SHH@Z	@1528
	?lastIndexOf@UnicodeString@icu_62@@QEBAHPEB_SHHHH@Z	@1529
	?lastIndexOf@UnicodeString@icu_62@@QEBAHVConstChar16Ptr@2@HHH@Z	@1530
	?lastIndexOf@UnicodeString@icu_62@@QEBAH_S@Z	@1531
	?lastIndexOf@UnicodeString@icu_62@@QEBAH_SH@Z	@1532
	?lastIndexOf@UnicodeString@icu_62@@QEBAH_SHH@Z	@1533
	?lastUnit@Edits@icu_62@@AEBAHXZ	@1534
	?length@CharString@icu_62@@QEBAHXZ	@1535
	?length@ReorderingBuffer@icu_62@@QEBAHXZ	@1536
	?length@Replaceable@icu_62@@QEBAHXZ	@1537
	?length@StringPiece@icu_62@@QEBAHXZ	@1538
	?length@UnicodeString@icu_62@@QEBAHXZ	@1539
	?lengthDelta@Edits@icu_62@@QEBAHXZ	@1540
	?loadListFormatInternal@ListFormatter@icu_62@@CAPEAUListFormatInternal@2@AEBVLocale@2@PEBDAEAW4UErrorCode@@@Z	@1541
	?loadRange@UnicodeSetIterator@icu_62@@MEAAXH@Z	@1542
	?makeBogusString@ICU_Utility@icu_62@@SA?AVUnicodeString@2@XZ	@1543
	?makeBranchSubNode@StringTrieBuilder@icu_62@@IEAAPEAVNode@12@HHHHAEAW4UErrorCode@@@Z	@1544
	?makeCanonIterDataFromNorm16@Normalizer2Impl@icu_62@@AEBAXHHGAEAUCanonIterData@2@AEAW4UErrorCode@@@Z	@1545
	?makeFCD@Normalizer2Impl@icu_62@@QEBAPEB_SPEB_S0PEAVReorderingBuffer@2@AEAW4UErrorCode@@@Z	@1546
	?makeFCDAndAppend@Normalizer2Impl@icu_62@@QEBAXPEB_S0CAEAVUnicodeString@2@AEAVReorderingBuffer@2@AEAW4UErrorCode@@@Z	@1547
	?makeInstance@BreakIterator@icu_62@@CAPEAV12@AEBVLocale@2@HAEAW4UErrorCode@@@Z	@1548
	?makeNode@StringTrieBuilder@icu_62@@IEAAPEAVNode@12@HHHAEAW4UErrorCode@@@Z	@1549
	?mapAlgorithmic@Normalizer2Impl@icu_62@@AEBAHHG@Z	@1550
	?matchNodesCanHaveValues@BytesTrieBuilder@icu_62@@EEBACXZ	@1551
	?matchNodesCanHaveValues@UCharsTrieBuilder@icu_62@@EEBACXZ	@1552
	?matchRest@UnicodeSet@icu_62@@CAHAEBVReplaceable@2@HHAEBVUnicodeString@2@@Z	@1553
	?matches@BytesDictionaryMatcher@icu_62@@UEBAHPEAUUText@@HHPEAH111@Z	@1554
	?matches@UCharsDictionaryMatcher@icu_62@@UEBAHPEAUUText@@HHPEAH111@Z	@1555
	?matches@UnicodeFilter@icu_62@@UEAA?AW4UMatchDegree@2@AEBVReplaceable@2@AEAHHC@Z	@1556
	?matches@UnicodeSet@icu_62@@UEAA?AW4UMatchDegree@2@AEBVReplaceable@2@AEAHHC@Z	@1557
	?matchesIndexValue@UnicodeSet@icu_62@@EEBACE@Z	@1558
	?mergeAndAppend@Edits@icu_62@@QEAAAEAV12@AEBV12@0AEAW4UErrorCode@@@Z	@1559
	?move32@UCharCharacterIterator@icu_62@@UEAAHHW4EOrigin@CharacterIterator@2@@Z	@1560
	?move@UCharCharacterIterator@icu_62@@UEAAHHW4EOrigin@CharacterIterator@2@@Z	@1561
	?moveArray@Edits@icu_62@@AEAAAEAV12@AEAV12@@Z	@1562
	?moveFrom@UnicodeString@icu_62@@QEAAAEAV12@AEAV12@@Z	@1563
	?moveIndex32@UnicodeString@icu_62@@QEBAHHH@Z	@1564
	?nameToASCII_UTF8@IDNA@icu_62@@UEBAXVStringPiece@2@AEAVByteSink@2@AEAVIDNAInfo@2@AEAW4UErrorCode@@@Z	@1565
	?nameToUnicodeUTF8@IDNA@icu_62@@UEBAXVStringPiece@2@AEAVByteSink@2@AEAVIDNAInfo@2@AEAW4UErrorCode@@@Z	@1566
	?newLength@Iterator@Edits@icu_62@@QEBAHXZ	@1567
	?next32@UCharCharacterIterator@icu_62@@UEAAHXZ	@1568
	?next32PostInc@UCharCharacterIterator@icu_62@@UEAAHXZ	@1569
	?next@BytesTrie@icu_62@@QEAA?AW4UStringTrieResult@@H@Z	@1570
	?next@BytesTrie@icu_62@@QEAA?AW4UStringTrieResult@@PEBDH@Z	@1571
	?next@CanonicalIterator@icu_62@@QEAA?AVUnicodeString@2@XZ	@1572
	?next@FullCaseFoldingIterator@icu_62@@QEAAHAEAVUnicodeString@2@@Z	@1573
	?next@Iterator@BytesTrie@icu_62@@QEAACAEAW4UErrorCode@@@Z	@1574
	?next@Iterator@Edits@icu_62@@AEAACCAEAW4UErrorCode@@@Z	@1575
	?next@Iterator@Edits@icu_62@@QEAACAEAW4UErrorCode@@@Z	@1576
	?next@Iterator@UCharsTrie@icu_62@@QEAACAEAW4UErrorCode@@@Z	@1577
	?next@Normalizer@icu_62@@QEAAHXZ	@1578
	?next@RuleBasedBreakIterator@icu_62@@UEAAHH@Z	@1579
	?next@RuleBasedBreakIterator@icu_62@@UEAAHXZ	@1580
	?next@StringEnumeration@icu_62@@UEAAPEBDPEAHAEAW4UErrorCode@@@Z	@1581
	?next@UCharCharacterIterator@icu_62@@UEAA_SXZ	@1582
	?next@UCharsTrie@icu_62@@QEAA?AW4UStringTrieResult@@H@Z	@1583
	?next@UCharsTrie@icu_62@@QEAA?AW4UStringTrieResult@@VConstChar16Ptr@2@H@Z	@1584
	?next@UStringEnumeration@icu_62@@UEAAPEBDPEAHAEAW4UErrorCode@@@Z	@1585
	?next@UnicodeSetIterator@icu_62@@QEAACXZ	@1586
	?nextElement@Hashtable@icu_62@@QEBAPEBUUHashElement@@AEAH@Z	@1587
	?nextFCD16@Normalizer2Impl@icu_62@@QEBAGAEAPEB_SPEB_S@Z	@1588
	?nextForCodePoint@UCharsTrie@icu_62@@QEAA?AW4UStringTrieResult@@H@Z	@1589
	?nextImpl@BytesTrie@icu_62@@AEAA?AW4UStringTrieResult@@PEBEH@Z	@1590
	?nextImpl@UCharsTrie@icu_62@@AEAA?AW4UStringTrieResult@@PEB_SH@Z	@1591
	?nextNormalize@Normalizer@icu_62@@AEAACXZ	@1592
	?nextPostInc@UCharCharacterIterator@icu_62@@UEAA_SXZ	@1593
	?nextRange@UnicodeSetIterator@icu_62@@QEAACXZ	@1594
	?noHardReferences@SharedObject@icu_62@@QEBACXZ	@1595
	?noNext@Iterator@Edits@icu_62@@AEAACXZ	@1596
	?norm16HasCompBoundaryAfter@Normalizer2Impl@icu_62@@AEBACGC@Z	@1597
	?norm16HasCompBoundaryBefore@Normalizer2Impl@icu_62@@AEBACG@Z	@1598
	?norm16HasDecompBoundaryAfter@Normalizer2Impl@icu_62@@QEBACG@Z	@1599
	?norm16HasDecompBoundaryBefore@Normalizer2Impl@icu_62@@QEBACG@Z	@1600
	?normalize@FilteredNormalizer2@icu_62@@AEBAAEAVUnicodeString@2@AEBV32@AEAV32@W4USetSpanCondition@@AEAW4UErrorCode@@@Z	@1601
	?normalize@FilteredNormalizer2@icu_62@@UEBAAEAVUnicodeString@2@AEBV32@AEAV32@AEAW4UErrorCode@@@Z	@1602
	?normalize@Normalizer2@icu_62@@QEBA?AVUnicodeString@2@AEBV32@AEAW4UErrorCode@@@Z	@1603
	?normalize@Normalizer@icu_62@@SAXAEBVUnicodeString@2@W4UNormalizationMode@@HAEAV32@AEAW4UErrorCode@@@Z	@1604
	?normalizeSecondAndAppend@FilteredNormalizer2@icu_62@@AEBAAEAVUnicodeString@2@AEAV32@AEBV32@CAEAW4UErrorCode@@@Z	@1605
	?normalizeSecondAndAppend@FilteredNormalizer2@icu_62@@UEBAAEAVUnicodeString@2@AEAV32@AEBV32@AEAW4UErrorCode@@@Z	@1606
	?normalizeUTF8@FilteredNormalizer2@icu_62@@AEBAXIPEBDHAEAVByteSink@2@PEAVEdits@2@W4USetSpanCondition@@AEAW4UErrorCode@@@Z	@1607
	?normalizeUTF8@FilteredNormalizer2@icu_62@@UEBAXIVStringPiece@2@AEAVByteSink@2@PEAVEdits@2@AEAW4UErrorCode@@@Z	@1608
	?normalizeUTF8@Normalizer2@icu_62@@UEBAXIVStringPiece@2@AEAVByteSink@2@PEAVEdits@2@AEAW4UErrorCode@@@Z	@1609
	?notifyChanged@ICUNotifier@icu_62@@UEAAXXZ	@1610
	?notifyListener@ICUService@icu_62@@MEBAXAEAVEventListener@2@@Z	@1611
	?npos@StringPiece@icu_62@@2HB	@1612
	?numberOfChanges@Edits@icu_62@@QEBAHXZ	@1613
	?oldLength@Iterator@Edits@icu_62@@QEBAHXZ	@1614
	?orphanElementAt@UVector@icu_62@@QEAAPEAXH@Z	@1615
	?orphanOrClone@?$MaybeStackArray@D$0CI@@icu_62@@QEAAPEADHAEAH@Z	@1616
	?padLeading@UnicodeString@icu_62@@QEAACH_S@Z	@1617
	?padTrailing@UnicodeString@icu_62@@QEAACH_S@Z	@1618
	?parse@MessagePattern@icu_62@@QEAAAEAV12@AEBVUnicodeString@2@PEAUUParseError@@AEAW4UErrorCode@@@Z	@1619
	?parseArg@MessagePattern@icu_62@@AEAAHHHHPEAUUParseError@@AEAW4UErrorCode@@@Z	@1620
	?parseArgNumber@MessagePattern@icu_62@@AEAAHHH@Z	@1621
	?parseArgNumber@MessagePattern@icu_62@@CAHAEBVUnicodeString@2@HH@Z	@1622
	?parseChar@ICU_Utility@icu_62@@SACAEBVUnicodeString@2@AEAH_S@Z	@1623
	?parseChoiceStyle@MessagePattern@icu_62@@AEAAHHHPEAUUParseError@@AEAW4UErrorCode@@@Z	@1624
	?parseChoiceStyle@MessagePattern@icu_62@@QEAAAEAV12@AEBVUnicodeString@2@PEAUUParseError@@AEAW4UErrorCode@@@Z	@1625
	?parseDouble@MessagePattern@icu_62@@AEAAXHHCPEAUUParseError@@AEAW4UErrorCode@@@Z	@1626
	?parseInteger@ICU_Utility@icu_62@@SAHAEBVUnicodeString@2@AEAHH@Z	@1627
	?parseMessage@MessagePattern@icu_62@@AEAAHHHHW4UMessagePatternArgType@@PEAUUParseError@@AEAW4UErrorCode@@@Z	@1628
	?parseNumber@ICU_Utility@icu_62@@SAHAEBVUnicodeString@2@AEAHC@Z	@1629
	?parsePattern@ICU_Utility@icu_62@@SAHAEBVUnicodeString@2@AEBVReplaceable@2@HH@Z	@1630
	?parsePattern@ICU_Utility@icu_62@@SAHAEBVUnicodeString@2@HH0PEAH@Z	@1631
	?parsePluralOrSelectStyle@MessagePattern@icu_62@@AEAAHW4UMessagePatternArgType@@HHPEAUUParseError@@AEAW4UErrorCode@@@Z	@1632
	?parsePluralStyle@MessagePattern@icu_62@@QEAAAEAV12@AEBVUnicodeString@2@PEAUUParseError@@AEAW4UErrorCode@@@Z	@1633
	?parsePrefix@ICUServiceKey@icu_62@@SAAEAVUnicodeString@2@AEAV32@@Z	@1634
	?parseSelectStyle@MessagePattern@icu_62@@QEAAAEAV12@AEBVUnicodeString@2@PEAUUParseError@@AEAW4UErrorCode@@@Z	@1635
	?parseSimpleStyle@MessagePattern@icu_62@@AEAAHHPEAUUParseError@@AEAW4UErrorCode@@@Z	@1636
	?parseSuffix@ICUServiceKey@icu_62@@SAAEAVUnicodeString@2@AEAV32@@Z	@1637
	?parseUnicodeIdentifier@ICU_Utility@icu_62@@SA?AVUnicodeString@2@AEBV32@AEAH@Z	@1638
	?partSubstringMatches@MessagePattern@icu_62@@QEBACAEBVPart@12@AEBVUnicodeString@2@@Z	@1639
	?peek@UStack@icu_62@@QEBAPEAXXZ	@1640
	?peeki@UStack@icu_62@@QEBAHXZ	@1641
	?peeki@UVector32@icu_62@@QEBAHXZ	@1642
	?permute@CanonicalIterator@icu_62@@SAXAEAVUnicodeString@2@CPEAVHashtable@2@AEAW4UErrorCode@@@Z	@1643
	?pinIndex@UnicodeString@icu_62@@AEBAXAEAH@Z	@1644
	?pinIndices@UnicodeString@icu_62@@AEBAXAEAH0@Z	@1645
	?pop@UStack@icu_62@@QEAAPEAXXZ	@1646
	?popFrame@UVector32@icu_62@@QEAAPEAHH@Z	@1647
	?popFrame@UVector64@icu_62@@QEAAPEA_JH@Z	@1648
	?popi@UStack@icu_62@@QEAAHXZ	@1649
	?popi@UVector32@icu_62@@QEAAHXZ	@1650
	?popi@UVector64@icu_62@@QEAA_JXZ	@1651
	?postParse@MessagePattern@icu_62@@AEAAXXZ	@1652
	?preParse@MessagePattern@icu_62@@AEAAXAEBVUnicodeString@2@PEAUUParseError@@AEAW4UErrorCode@@@Z	@1653
	?preceding@RuleBasedBreakIterator@icu_62@@UEAAHH@Z	@1654
	?prefix@ICUServiceKey@icu_62@@UEBAAEAVUnicodeString@2@AEAV32@@Z	@1655
	?prefix@LocaleKey@icu_62@@UEBAAEAVUnicodeString@2@AEAV32@@Z	@1656
	?previous32@UCharCharacterIterator@icu_62@@UEAAHXZ	@1657
	?previous@Iterator@Edits@icu_62@@AEAACAEAW4UErrorCode@@@Z	@1658
	?previous@Normalizer@icu_62@@QEAAHXZ	@1659
	?previous@RuleBasedBreakIterator@icu_62@@UEAAHXZ	@1660
	?previous@UCharCharacterIterator@icu_62@@UEAA_SXZ	@1661
	?previousCC@ReorderingBuffer@icu_62@@AEAAEXZ	@1662
	?previousFCD16@Normalizer2Impl@icu_62@@QEBAGPEB_SAEAPEB_S@Z	@1663
	?previousNormalize@Normalizer@icu_62@@AEAACXZ	@1664
	?push@UStack@icu_62@@QEAAHHAEAW4UErrorCode@@@Z	@1665
	?push@UStack@icu_62@@QEAAPEAXPEAXAEAW4UErrorCode@@@Z	@1666
	?push@UVector32@icu_62@@QEAAHHAEAW4UErrorCode@@@Z	@1667
	?push@UVector64@icu_62@@QEAA_J_JAEAW4UErrorCode@@@Z	@1668
	?put@Hashtable@icu_62@@QEAAPEAXAEBVUnicodeString@2@PEAXAEAW4UErrorCode@@@Z	@1669
	?puti@Hashtable@icu_62@@QEAAHAEBVUnicodeString@2@HAEAW4UErrorCode@@@Z	@1670
	?quickCheck@FilteredNormalizer2@icu_62@@UEBA?AW4UNormalizationCheckResult@@AEBVUnicodeString@2@AEAW4UErrorCode@@@Z	@1671
	?quickCheck@Normalizer@icu_62@@SA?AW4UNormalizationCheckResult@@AEBVUnicodeString@2@W4UNormalizationMode@@AEAW4UErrorCode@@@Z	@1672
	?quickCheck@Normalizer@icu_62@@SA?AW4UNormalizationCheckResult@@AEBVUnicodeString@2@W4UNormalizationMode@@HAEAW4UErrorCode@@@Z	@1673
	?reInitializeFactories@ICUService@icu_62@@MEAAXXZ	@1674
	?readLength@Iterator@Edits@icu_62@@AEAAHH@Z	@1675
	?readNodeValue@UCharsTrie@icu_62@@CAHPEB_SH@Z	@1676
	?readValue@BytesTrie@icu_62@@CAHPEBEH@Z	@1677
	?readValue@UCharsTrie@icu_62@@CAHPEB_SH@Z	@1678
	?recompose@Normalizer2Impl@icu_62@@AEBAXAEAVReorderingBuffer@2@HC@Z	@1679
	?refCount@UnicodeString@icu_62@@AEBAHXZ	@1680
	?refreshInputText@RuleBasedBreakIterator@icu_62@@UEAAAEAV12@PEAUUText@@AEAW4UErrorCode@@@Z	@1681
	?registerFactory@ICUService@icu_62@@UEAAPEBXPEAVICUServiceFactory@2@AEAW4UErrorCode@@@Z	@1682
	?registerFinalValue@StringTrieBuilder@icu_62@@IEAAPEAVNode@12@HAEAW4UErrorCode@@@Z	@1683
	?registerInstance@BreakIterator@icu_62@@SAPEBXPEAV12@AEBVLocale@2@W4UBreakIteratorType@@AEAW4UErrorCode@@@Z	@1684
	?registerInstance@ICULocaleService@icu_62@@UEAAPEBXPEAVUObject@2@AEBVLocale@2@AEAW4UErrorCode@@@Z	@1685
	?registerInstance@ICULocaleService@icu_62@@UEAAPEBXPEAVUObject@2@AEBVLocale@2@HAEAW4UErrorCode@@@Z	@1686
	?registerInstance@ICULocaleService@icu_62@@UEAAPEBXPEAVUObject@2@AEBVLocale@2@HHAEAW4UErrorCode@@@Z	@1687
	?registerInstance@ICULocaleService@icu_62@@UEAAPEBXPEAVUObject@2@AEBVUnicodeString@2@CAEAW4UErrorCode@@@Z	@1688
	?registerInstance@ICUService@icu_62@@QEAAPEBXPEAVUObject@2@AEBVUnicodeString@2@AEAW4UErrorCode@@@Z	@1689
	?registerInstance@ICUService@icu_62@@UEAAPEBXPEAVUObject@2@AEBVUnicodeString@2@CAEAW4UErrorCode@@@Z	@1690
	?registerNode@StringTrieBuilder@icu_62@@IEAAPEAVNode@12@PEAV312@AEAW4UErrorCode@@@Z	@1691
	?releaseArray@?$MaybeStackArray@D$0CI@@icu_62@@AEAAXXZ	@1692
	?releaseArray@Edits@icu_62@@AEAAXXZ	@1693
	?releaseArray@UnicodeString@icu_62@@AEAAXXZ	@1694
	?releaseBuffer@UnicodeString@icu_62@@QEAAXH@Z	@1695
	?releasePattern@UnicodeSet@icu_62@@AEAAXXZ	@1696
	?remove@Hashtable@icu_62@@QEAAPEAXAEBVUnicodeString@2@@Z	@1697
	?remove@ReorderingBuffer@icu_62@@QEAAXXZ	@1698
	?remove@UStringSet@icu_62@@QEAACAEBVUnicodeString@2@AEAW4UErrorCode@@@Z	@1699
	?remove@UnicodeSet@icu_62@@QEAAAEAV12@AEBVUnicodeString@2@@Z	@1700
	?remove@UnicodeSet@icu_62@@QEAAAEAV12@H@Z	@1701
	?remove@UnicodeSet@icu_62@@UEAAAEAV12@HH@Z	@1702
	?remove@UnicodeString@icu_62@@QEAAAEAV12@HH@Z	@1703
	?remove@UnicodeString@icu_62@@QEAAAEAV12@XZ	@1704
	?removeAll@Hashtable@icu_62@@QEAAXXZ	@1705
	?removeAll@UVector32@icu_62@@QEAACAEBV12@@Z	@1706
	?removeAll@UVector@icu_62@@QEAACAEBV12@@Z	@1707
	?removeAll@UnicodeSet@icu_62@@QEAAAEAV12@AEBVUnicodeString@2@@Z	@1708
	?removeAll@UnicodeSet@icu_62@@UEAAAEAV12@AEBV12@@Z	@1709
	?removeAllElements@UVector32@icu_62@@QEAAXXZ	@1710
	?removeAllElements@UVector64@icu_62@@QEAAXXZ	@1711
	?removeAllElements@UVector@icu_62@@QEAAXXZ	@1712
	?removeAllStrings@UnicodeSet@icu_62@@UEAAAEAV12@XZ	@1713
	?removeBetween@UnicodeString@icu_62@@QEAAAEAV12@HH@Z	@1714
	?removeElement@UVector@icu_62@@QEAACPEAX@Z	@1715
	?removeElementAt@UVector32@icu_62@@QEAAXH@Z	@1716
	?removeElementAt@UVector@icu_62@@QEAAXH@Z	@1717
	?removeHardRef@UnifiedCache@icu_62@@AEBAHPEBVSharedObject@2@@Z	@1718
	?removeListener@ICUNotifier@icu_62@@UEAAXPEBVEventListener@2@AEAW4UErrorCode@@@Z	@1719
	?removeRef@SharedObject@icu_62@@QEBAXXZ	@1720
	?removeRef@UnicodeString@icu_62@@AEAAHXZ	@1721
	?removeSoftRef@UnifiedCache@icu_62@@AEBAXPEBVSharedObject@2@@Z	@1722
	?removeSuffix@ReorderingBuffer@icu_62@@QEAAXH@Z	@1723
	?remove_prefix@StringPiece@icu_62@@QEAAXH@Z	@1724
	?remove_suffix@StringPiece@icu_62@@QEAAXH@Z	@1725
	?removei@Hashtable@icu_62@@QEAAHAEBVUnicodeString@2@@Z	@1726
	?replace@UnicodeString@icu_62@@QEAAAEAV12@HHAEBV12@@Z	@1727
	?replace@UnicodeString@icu_62@@QEAAAEAV12@HHAEBV12@HH@Z	@1728
	?replace@UnicodeString@icu_62@@QEAAAEAV12@HHH@Z	@1729
	?replace@UnicodeString@icu_62@@QEAAAEAV12@HHPEB_SHH@Z	@1730
	?replace@UnicodeString@icu_62@@QEAAAEAV12@HHVConstChar16Ptr@2@H@Z	@1731
	?replace@UnicodeString@icu_62@@QEAAAEAV12@HH_S@Z	@1732
	?replaceBetween@UnicodeString@icu_62@@QEAAAEAV12@HHAEBV12@@Z	@1733
	?replaceBetween@UnicodeString@icu_62@@QEAAAEAV12@HHAEBV12@HH@Z	@1734
	?replacementIndex@Iterator@Edits@icu_62@@QEBAHXZ	@1735
	?resemblesPattern@UnicodeSet@icu_62@@SACAEBVUnicodeString@2@H@Z	@1736
	?resemblesPropertyPattern@UnicodeSet@icu_62@@CACAEAVRuleCharacterIterator@2@H@Z	@1737
	?resemblesPropertyPattern@UnicodeSet@icu_62@@CACAEBVUnicodeString@2@H@Z	@1738
	?reserveAppendCapacity@Appendable@icu_62@@UEAACH@Z	@1739
	?reserveAppendCapacity@UnicodeStringAppendable@icu_62@@UEAACH@Z	@1740
	?reserveBlock@UVector32@icu_62@@QEAAPEAHHAEAW4UErrorCode@@@Z	@1741
	?reserveBlock@UVector64@icu_62@@QEAAPEA_JHAEAW4UErrorCode@@@Z	@1742
	?reset@BytesTrie@icu_62@@QEAAAEAV12@XZ	@1743
	?reset@CanonicalIterator@icu_62@@QEAAXXZ	@1744
	?reset@Edits@icu_62@@QEAAXXZ	@1745
	?reset@ErrorCode@icu_62@@QEAA?AW4UErrorCode@@XZ	@1746
	?reset@ICUService@icu_62@@UEAAXXZ	@1747
	?reset@IDNAInfo@icu_62@@AEAAXXZ	@1748
	?reset@Iterator@BytesTrie@icu_62@@QEAAAEAV123@XZ	@1749
	?reset@Iterator@UCharsTrie@icu_62@@QEAAAEAV123@XZ	@1750
	?reset@Normalizer@icu_62@@QEAAXXZ	@1751
	?reset@UCharsTrie@icu_62@@QEAAAEAV12@XZ	@1752
	?reset@UStringEnumeration@icu_62@@UEAAXAEAW4UErrorCode@@@Z	@1753
	?reset@UnicodeSetIterator@icu_62@@QEAAXAEBVUnicodeSet@2@@Z	@1754
	?reset@UnicodeSetIterator@icu_62@@QEAAXXZ	@1755
	?resetIterator@ResourceBundle@icu_62@@QEAAXXZ	@1756
	?resetToStackArray@?$MaybeStackArray@D$0CI@@icu_62@@AEAAXXZ	@1757
	?resetToState@BytesTrie@icu_62@@QEAAAEAV12@AEBVState@12@@Z	@1758
	?resetToState@UCharsTrie@icu_62@@QEAAAEAV12@AEBVState@12@@Z	@1759
	?resize@?$MaybeStackArray@D$0CI@@icu_62@@QEAAPEADHH@Z	@1760
	?resize@ReorderingBuffer@icu_62@@AEAACHAEAW4UErrorCode@@@Z	@1761
	?retain@UnicodeSet@icu_62@@AEAAXPEBHHC@Z	@1762
	?retain@UnicodeSet@icu_62@@QEAAAEAV12@H@Z	@1763
	?retain@UnicodeSet@icu_62@@UEAAAEAV12@HH@Z	@1764
	?retainAll@UVector32@icu_62@@QEAACAEBV12@@Z	@1765
	?retainAll@UVector@icu_62@@QEAACAEBV12@@Z	@1766
	?retainAll@UnicodeSet@icu_62@@QEAAAEAV12@AEBVUnicodeString@2@@Z	@1767
	?retainAll@UnicodeSet@icu_62@@UEAAAEAV12@AEBV12@@Z	@1768
	?retainBetween@UnicodeString@icu_62@@QEAAAEAV12@HH@Z	@1769
	?reverse@UnicodeString@icu_62@@QEAAAEAV12@HH@Z	@1770
	?reverse@UnicodeString@icu_62@@QEAAAEAV12@XZ	@1771
	?saveState@BytesTrie@icu_62@@QEBAAEBV12@AEAVState@12@@Z	@1772
	?saveState@UCharsTrie@icu_62@@QEBAAEBV12@AEAVState@12@@Z	@1773
	?search@UStack@icu_62@@QEBAHPEAX@Z	@1774
	?serialize@UnicodeSet@icu_62@@QEBAHPEAGHAEAW4UErrorCode@@@Z	@1775
	?set@ErrorCode@icu_62@@QEAAXW4UErrorCode@@@Z	@1776
	?set@StringPiece@icu_62@@QEAAXPEBD@Z	@1777
	?set@StringPiece@icu_62@@QEAAXPEBDH@Z	@1778
	?set@UnicodeSet@icu_62@@QEAAAEAV12@HH@Z	@1779
	?setArray@UnicodeString@icu_62@@AEAAXPEA_SHH@Z	@1780
	?setCharAt@UnicodeString@icu_62@@QEAAAEAV12@H_S@Z	@1781
	?setChars@StringEnumeration@icu_62@@IEAAPEAVUnicodeString@2@PEBDHAEAW4UErrorCode@@@Z	@1782
	?setComparer@UVector@icu_62@@QEAAP6ACTUElement@@0@ZP6AC00@Z@Z	@1783
	?setData@UnicodeFilter@icu_62@@UEAAXPEBVTransliterationRuleData@2@@Z	@1784
	?setDefault@Locale@icu_62@@SAXAEBV12@AEAW4UErrorCode@@@Z	@1785
	?setDeleter@UVector@icu_62@@QEAAP6AXPEAX@ZP6AX0@Z@Z	@1786
	?setElementAt@UVector32@icu_62@@QEAAXHH@Z	@1787
	?setElementAt@UVector64@icu_62@@QEAAX_JH@Z	@1788
	?setElementAt@UVector@icu_62@@QEAAXHH@Z	@1789
	?setElementAt@UVector@icu_62@@QEAAXPEAXH@Z	@1790
	?setErrorIndex@ParsePosition@icu_62@@QEAAXH@Z	@1791
	?setEvictionPolicy@UnifiedCache@icu_62@@QEAAXHHAEAW4UErrorCode@@@Z	@1792
	?setFromPOSIXID@Locale@icu_62@@IEAAXPEBD@Z	@1793
	?setIndex32@UCharCharacterIterator@icu_62@@UEAAHH@Z	@1794
	?setIndex@ParsePosition@icu_62@@QEAAXH@Z	@1795
	?setIndex@UCharCharacterIterator@icu_62@@UEAA_SH@Z	@1796
	?setIndexOnly@Normalizer@icu_62@@QEAAXH@Z	@1797
	?setIterator@ReorderingBuffer@icu_62@@AEAAXXZ	@1798
	?setKeyComparator@Hashtable@icu_62@@QEAAP6ACTUElement@@0@ZP6AC00@Z@Z	@1799
	?setKeywordValue@Locale@icu_62@@QEAAXPEBD0AEAW4UErrorCode@@@Z	@1800
	?setLastUnit@Edits@icu_62@@AEAAXH@Z	@1801
	?setLength@UnicodeString@icu_62@@AEAAXH@Z	@1802
	?setLocaleIDs@LocaleBased@icu_62@@QEAAXAEBVLocale@2@0@Z	@1803
	?setLocaleIDs@LocaleBased@icu_62@@QEAAXPEBD0@Z	@1804
	?setMaxCapacity@UVector32@icu_62@@QEAAXH@Z	@1805
	?setMaxCapacity@UVector64@icu_62@@QEAAXH@Z	@1806
	?setMode@Normalizer@icu_62@@QEAAXW4UNormalizationMode@@@Z	@1807
	?setOption@Normalizer@icu_62@@QEAAXHC@Z	@1808
	?setParseError@MessagePattern@icu_62@@AEAAXPEAUUParseError@@H@Z	@1809
	?setPattern@UnicodeSet@icu_62@@AEAAXAEBVUnicodeString@2@@Z	@1810
	?setReorderingLimit@ReorderingBuffer@icu_62@@QEAAXPEA_S@Z	@1811
	?setShortLength@UnicodeString@icu_62@@AEAAXH@Z	@1812
	?setSize@UVector32@icu_62@@QEAAXH@Z	@1813
	?setSize@UVector64@icu_62@@QEAAXH@Z	@1814
	?setSize@UVector@icu_62@@QEAAXHAEAW4UErrorCode@@@Z	@1815
	?setSource@CanonicalIterator@icu_62@@QEAAXAEBVUnicodeString@2@AEAW4UErrorCode@@@Z	@1816
	?setText@Normalizer@icu_62@@QEAAXAEBVCharacterIterator@2@AEAW4UErrorCode@@@Z	@1817
	?setText@Normalizer@icu_62@@QEAAXAEBVUnicodeString@2@AEAW4UErrorCode@@@Z	@1818
	?setText@Normalizer@icu_62@@QEAAXVConstChar16Ptr@2@HAEAW4UErrorCode@@@Z	@1819
	?setText@RuleBasedBreakIterator@icu_62@@UEAAXAEBVUnicodeString@2@@Z	@1820
	?setText@RuleBasedBreakIterator@icu_62@@UEAAXPEAUUText@@AEAW4UErrorCode@@@Z	@1821
	?setText@StringCharacterIterator@icu_62@@QEAAXAEBVUnicodeString@2@@Z	@1822
	?setText@UCharCharacterIterator@icu_62@@QEAAXVConstChar16Ptr@2@H@Z	@1823
	?setTo@UnicodeString@icu_62@@QEAAAEAV12@AEBV12@@Z	@1824
	?setTo@UnicodeString@icu_62@@QEAAAEAV12@AEBV12@H@Z	@1825
	?setTo@UnicodeString@icu_62@@QEAAAEAV12@AEBV12@HH@Z	@1826
	?setTo@UnicodeString@icu_62@@QEAAAEAV12@CVConstChar16Ptr@2@H@Z	@1827
	?setTo@UnicodeString@icu_62@@QEAAAEAV12@H@Z	@1828
	?setTo@UnicodeString@icu_62@@QEAAAEAV12@PEA_SHH@Z	@1829
	?setTo@UnicodeString@icu_62@@QEAAAEAV12@PEB_SH@Z	@1830
	?setTo@UnicodeString@icu_62@@QEAAAEAV12@_S@Z	@1831
	?setToBogus@Locale@icu_62@@QEAAXXZ	@1832
	?setToBogus@UnicodeSet@icu_62@@QEAAXXZ	@1833
	?setToBogus@UnicodeString@icu_62@@QEAAXXZ	@1834
	?setToEmpty@UnicodeString@icu_62@@AEAAXXZ	@1835
	?setToEnd@CharacterIterator@icu_62@@QEAAHXZ	@1836
	?setToStart@CharacterIterator@icu_62@@QEAAHXZ	@1837
	?setToUTF8@UnicodeString@icu_62@@AEAAAEAV12@VStringPiece@2@@Z	@1838
	?setValueComparator@Hashtable@icu_62@@QEAAP6ACTUElement@@0@ZP6AC00@Z@Z	@1839
	?setValueDeleter@Hashtable@icu_62@@QEAAP6AXPEAX@ZP6AX0@Z@Z	@1840
	?setZeroLength@UnicodeString@icu_62@@AEAAXXZ	@1841
	?singleLeadMightHaveNonZeroFCD16@Normalizer2Impl@icu_62@@QEBACH@Z	@1842
	?size@StringPiece@icu_62@@QEBAHXZ	@1843
	?size@UVector32@icu_62@@QEBAHXZ	@1844
	?size@UVector64@icu_62@@QEBAHXZ	@1845
	?size@UVector@icu_62@@QEBAHXZ	@1846
	?size@UnicodeSet@icu_62@@UEBAHXZ	@1847
	?skipDelta@BytesTrie@icu_62@@CAPEBEPEBE@Z	@1848
	?skipDelta@UCharsTrie@icu_62@@CAPEB_SPEB_S@Z	@1849
	?skipDouble@MessagePattern@icu_62@@AEAAHH@Z	@1850
	?skipElementsBySomeUnits@BytesTrieBuilder@icu_62@@EEBAHHHH@Z	@1851
	?skipElementsBySomeUnits@UCharsTrieBuilder@icu_62@@EEBAHHHH@Z	@1852
	?skipIdentifier@MessagePattern@icu_62@@AEAAHH@Z	@1853
	?skipIdentifier@PatternProps@icu_62@@SAPEB_SPEB_SH@Z	@1854
	?skipNodeValue@UCharsTrie@icu_62@@CAPEB_SPEB_SH@Z	@1855
	?skipPrevious@ReorderingBuffer@icu_62@@AEAAXXZ	@1856
	?skipValue@BytesTrie@icu_62@@CAPEBEPEBE@Z	@1857
	?skipValue@BytesTrie@icu_62@@CAPEBEPEBEH@Z	@1858
	?skipValue@UCharsTrie@icu_62@@CAPEB_SPEB_S@Z	@1859
	?skipValue@UCharsTrie@icu_62@@CAPEB_SPEB_SH@Z	@1860
	?skipWhiteSpace@MessagePattern@icu_62@@AEAAHH@Z	@1861
	?skipWhiteSpace@PatternProps@icu_62@@SAPEB_SPEB_SH@Z	@1862
	?skipWhitespace@ICU_Utility@icu_62@@SAHAEBVUnicodeString@2@AEAHC@Z	@1863
	?snext@StringEnumeration@icu_62@@UEAAPEBVUnicodeString@2@AEAW4UErrorCode@@@Z	@1864
	?snext@UStringEnumeration@icu_62@@UEAAPEBVUnicodeString@2@AEAW4UErrorCode@@@Z	@1865
	?sort@UVector@icu_62@@QEAAXP6ACTUElement@@0@ZAEAW4UErrorCode@@@Z	@1866
	?sortWithUComparator@UVector@icu_62@@QEAAXP6AHPEBX00@Z0AEAW4UErrorCode@@@Z	@1867
	?sortedInsert@UVector32@icu_62@@QEAAXHAEAW4UErrorCode@@@Z	@1868
	?sortedInsert@UVector@icu_62@@AEAAXTUElement@@P6AC00@ZAEAW4UErrorCode@@@Z	@1869
	?sortedInsert@UVector@icu_62@@QEAAXHP6ACTUElement@@0@ZAEAW4UErrorCode@@@Z	@1870
	?sortedInsert@UVector@icu_62@@QEAAXPEAXP6ACTUElement@@1@ZAEAW4UErrorCode@@@Z	@1871
	?sorti@UVector@icu_62@@QEAAXAEAW4UErrorCode@@@Z	@1872
	?sourceIndex@Iterator@Edits@icu_62@@QEBAHXZ	@1873
	?sourceIndexFromDestinationIndex@Iterator@Edits@icu_62@@QEAAHHAEAW4UErrorCode@@@Z	@1874
	?span@UnicodeSet@icu_62@@QEBAHAEBVUnicodeString@2@HW4USetSpanCondition@@@Z	@1875
	?span@UnicodeSet@icu_62@@QEBAHPEB_SHW4USetSpanCondition@@@Z	@1876
	?spanBack@UnicodeSet@icu_62@@QEBAHAEBVUnicodeString@2@HW4USetSpanCondition@@@Z	@1877
	?spanBack@UnicodeSet@icu_62@@QEBAHPEB_SHW4USetSpanCondition@@@Z	@1878
	?spanBackUTF8@UnicodeSet@icu_62@@QEBAHPEBDHW4USetSpanCondition@@@Z	@1879
	?spanQuickCheckYes@FilteredNormalizer2@icu_62@@UEBAHAEBVUnicodeString@2@AEAW4UErrorCode@@@Z	@1880
	?spanUTF8@UnicodeSet@icu_62@@QEBAHPEBDHW4USetSpanCondition@@@Z	@1881
	?startIndex@CharacterIterator@icu_62@@QEBAHXZ	@1882
	?startIndex@Normalizer@icu_62@@QEBAHXZ	@1883
	?startsWith@UnicodeString@icu_62@@QEBACAEBV12@@Z	@1884
	?startsWith@UnicodeString@icu_62@@QEBACAEBV12@HH@Z	@1885
	?startsWith@UnicodeString@icu_62@@QEBACPEB_SHH@Z	@1886
	?startsWith@UnicodeString@icu_62@@QEBACVConstChar16Ptr@2@H@Z	@1887
	?stop@BytesTrie@icu_62@@AEAAXXZ	@1888
	?stop@UCharsTrie@icu_62@@AEAAXXZ	@1889
	?substr@StringPiece@icu_62@@QEBA?AV12@HH@Z	@1890
	?suppressBreakAfter@SimpleFilteredBreakIteratorBuilder@icu_62@@UEAACAEBVUnicodeString@2@AEAW4UErrorCode@@@Z	@1891
	?swap@UnicodeString@icu_62@@QEAAXAEAV12@@Z	@1892
	?swap@icu_62@@YAXAEAVUnicodeString@1@0@Z	@1893
	?swapBuffers@UnicodeSet@icu_62@@AEAAXXZ	@1894
	?tempSubString@UnicodeString@icu_62@@QEBA?AV12@HH@Z	@1895
	?tempSubStringBetween@UnicodeString@icu_62@@QEBA?AV12@HH@Z	@1896
	?toArray@UVector@icu_62@@QEBAPEAPEAXPEAPEAX@Z	@1897
	?toCategory@PluralMapBase@icu_62@@SA?AW4Category@12@AEBVUnicodeString@2@@Z	@1898
	?toCategory@PluralMapBase@icu_62@@SA?AW4Category@12@PEBD@Z	@1899
	?toLower@CaseMap@icu_62@@SAHPEBDIPEB_SHPEA_SHPEAVEdits@2@AEAW4UErrorCode@@@Z	@1900
	?toLower@UnicodeString@icu_62@@QEAAAEAV12@AEBVLocale@2@@Z	@1901
	?toLower@UnicodeString@icu_62@@QEAAAEAV12@XZ	@1902
	?toMatcher@UnicodeFilter@icu_62@@UEBAPEAVUnicodeMatcher@2@XZ	@1903
	?toMatcher@UnicodeFunctor@icu_62@@UEBAPEAVUnicodeMatcher@2@XZ	@1904
	?toPattern@UnicodeSet@icu_62@@UEBAAEAVUnicodeString@2@AEAV32@C@Z	@1905
	?toReplacer@UnicodeFunctor@icu_62@@UEBAPEAVUnicodeReplacer@2@XZ	@1906
	?toString@Iterator@Edits@icu_62@@QEBAAEAVUnicodeString@3@AEAV43@@Z	@1907
	?toStringPiece@CharString@icu_62@@QEBA?AVStringPiece@2@XZ	@1908
	?toTitle@CaseMap@icu_62@@SAHPEBDIPEAVBreakIterator@2@PEB_SHPEA_SHPEAVEdits@2@AEAW4UErrorCode@@@Z	@1909
	?toTitle@UnicodeString@icu_62@@QEAAAEAV12@PEAVBreakIterator@2@@Z	@1910
	?toTitle@UnicodeString@icu_62@@QEAAAEAV12@PEAVBreakIterator@2@AEBVLocale@2@@Z	@1911
	?toTitle@UnicodeString@icu_62@@QEAAAEAV12@PEAVBreakIterator@2@AEBVLocale@2@I@Z	@1912
	?toUSet@UnicodeSet@icu_62@@QEAAPEAUUSet@@XZ	@1913
	?toUSet@UnicodeSet@icu_62@@QEBAPEBUUSet@@XZ	@1914
	?toUTF32@UnicodeString@icu_62@@QEBAHPEAHHAEAW4UErrorCode@@@Z	@1915
	?toUTF8@UnicodeString@icu_62@@AEBAHHHPEADH@Z	@1916
	?toUTF8@UnicodeString@icu_62@@QEBAXAEAVByteSink@2@@Z	@1917
	?toUpper@CaseMap@icu_62@@SAHPEBDIPEB_SHPEA_SHPEAVEdits@2@AEAW4UErrorCode@@@Z	@1918
	?toUpper@UnicodeString@icu_62@@QEAAAEAV12@AEBVLocale@2@@Z	@1919
	?toUpper@UnicodeString@icu_62@@QEAAAEAV12@XZ	@1920
	?transform@BytesDictionaryMatcher@icu_62@@AEBAHH@Z	@1921
	?trim@UnicodeString@icu_62@@QEAAAEAV12@XZ	@1922
	?trimWhiteSpace@PatternProps@icu_62@@SAPEB_SPEB_SAEAH@Z	@1923
	?truncate@CharString@icu_62@@QEAAAEAV12@H@Z	@1924
	?truncate@UnicodeString@icu_62@@QEAACH@Z	@1925
	?truncateAndStop@Iterator@BytesTrie@icu_62@@AEAACXZ	@1926
	?truncateAndStop@Iterator@UCharsTrie@icu_62@@AEAACXZ	@1927
	?umtx_initImplPostInit@icu_62@@YAXAEAUUInitOnce@1@@Z	@1928
	?umtx_initImplPreInit@icu_62@@YACAEAUUInitOnce@1@@Z	@1929
	?unBogus@UnicodeString@icu_62@@AEAAXXZ	@1930
	?unescape@UnicodeString@icu_62@@QEBA?AV12@XZ	@1931
	?unescapeAt@UnicodeString@icu_62@@QEBAHAEAH@Z	@1932
	?unext@StringEnumeration@icu_62@@UEAAPEB_SPEAHAEAW4UErrorCode@@@Z	@1933
	?unregister@BreakIterator@icu_62@@SACPEBXAEAW4UErrorCode@@@Z	@1934
	?unregister@ICUService@icu_62@@UEAACPEBXAEAW4UErrorCode@@@Z	@1935
	?unsuppressBreakAfter@SimpleFilteredBreakIteratorBuilder@icu_62@@UEAACAEBVUnicodeString@2@AEAW4UErrorCode@@@Z	@1936
	?unusedCount@UnifiedCache@icu_62@@QEBAHXZ	@1937
	?updateNextIndexes@Iterator@Edits@icu_62@@AEAAXXZ	@1938
	?updatePreviousIndexes@Iterator@Edits@icu_62@@AEAAXXZ	@1939
	?updateVisibleIDs@LocaleKeyFactory@icu_62@@UEBAXAEAVHashtable@2@AEAW4UErrorCode@@@Z	@1940
	?updateVisibleIDs@SimpleFactory@icu_62@@UEBAXAEAVHashtable@2@AEAW4UErrorCode@@@Z	@1941
	?updateVisibleIDs@SimpleLocaleKeyFactory@icu_62@@UEBAXAEAVHashtable@2@AEAW4UErrorCode@@@Z	@1942
	?uscript_getSampleUnicodeString_62@@YA?AVUnicodeString@icu_62@@W4UScriptCode@@@Z	@1943
	?utf8Fold@CaseMap@icu_62@@SAHIPEBDHPEADHPEAVEdits@2@AEAW4UErrorCode@@@Z	@1944
	?utf8Fold@CaseMap@icu_62@@SAXIVStringPiece@2@AEAVByteSink@2@PEAVEdits@2@AEAW4UErrorCode@@@Z	@1945
	?utf8ToLower@CaseMap@icu_62@@SAHPEBDI0HPEADHPEAVEdits@2@AEAW4UErrorCode@@@Z	@1946
	?utf8ToLower@CaseMap@icu_62@@SAXPEBDIVStringPiece@2@AEAVByteSink@2@PEAVEdits@2@AEAW4UErrorCode@@@Z	@1947
	?utf8ToTitle@CaseMap@icu_62@@SAHPEBDIPEAVBreakIterator@2@0HPEADHPEAVEdits@2@AEAW4UErrorCode@@@Z	@1948
	?utf8ToTitle@CaseMap@icu_62@@SAXPEBDIPEAVBreakIterator@2@VStringPiece@2@AEAVByteSink@2@PEAVEdits@2@AEAW4UErrorCode@@@Z	@1949
	?utf8ToUpper@CaseMap@icu_62@@SAHPEBDI0HPEADHPEAVEdits@2@AEAW4UErrorCode@@@Z	@1950
	?utf8ToUpper@CaseMap@icu_62@@SAXPEBDIVStringPiece@2@AEAVByteSink@2@PEAVEdits@2@AEAW4UErrorCode@@@Z	@1951
	?validateArgumentName@MessagePattern@icu_62@@SAHAEBVUnicodeString@2@@Z	@1952
	?validateFallbackLocale@ICULocaleService@icu_62@@IEBAAEBVUnicodeString@2@XZ	@1953
	?valueResult@BytesTrie@icu_62@@CA?AW4UStringTrieResult@@H@Z	@1954
	?valueResult@UCharsTrie@icu_62@@CA?AW4UStringTrieResult@@H@Z	@1955
	?wrapIteratorWithFilter@FilteredBreakIteratorBuilder@icu_62@@QEAAPEAVBreakIterator@2@PEAV32@AEAW4UErrorCode@@@Z	@1956
	?write@BytesTrieBuilder@icu_62@@AEAAHPEBDH@Z	@1957
	?write@BytesTrieBuilder@icu_62@@EEAAHH@Z	@1958
	?write@UCharsTrieBuilder@icu_62@@AEAAHPEB_SH@Z	@1959
	?write@UCharsTrieBuilder@icu_62@@EEAAHH@Z	@1960
	?writeBranchSubNode@StringTrieBuilder@icu_62@@IEAAHHHHH@Z	@1961
	?writeCodePoint@ReorderingBuffer@icu_62@@CAXPEA_SH@Z	@1962
	?writeDeltaTo@BytesTrieBuilder@icu_62@@EEAAHH@Z	@1963
	?writeDeltaTo@UCharsTrieBuilder@icu_62@@EEAAHH@Z	@1964
	?writeElementUnits@BytesTrieBuilder@icu_62@@EEAAHHHH@Z	@1965
	?writeElementUnits@UCharsTrieBuilder@icu_62@@EEAAHHHH@Z	@1966
	?writeNode@StringTrieBuilder@icu_62@@IEAAHHHH@Z	@1967
	?writeValueAndFinal@BytesTrieBuilder@icu_62@@EEAAHHC@Z	@1968
	?writeValueAndFinal@UCharsTrieBuilder@icu_62@@EEAAHHC@Z	@1969
	?writeValueAndType@BytesTrieBuilder@icu_62@@EEAAHCHH@Z	@1970
	?writeValueAndType@UCharsTrieBuilder@icu_62@@EEAAHCHH@Z	@1971
	TFE_ContextAddFunction	@1972
	TFE_ContextAddFunctionDef	@1973
	TFE_ContextAsyncClearError	@1974
	TFE_ContextAsyncWait	@1975
	TFE_ContextClearCaches	@1976
	TFE_ContextDisableRunMetadata	@1977
	TFE_ContextEnableRunMetadata	@1978
	TFE_ContextEndStep	@1979
	TFE_ContextExportRunMetadata	@1980
	TFE_ContextGetDevicePlacementPolicy	@1981
	TFE_ContextListDevices	@1982
	TFE_ContextOptionsSetAsync	@1983
	TFE_ContextOptionsSetConfig	@1984
	TFE_ContextOptionsSetDevicePlacementPolicy	@1985
	TFE_ContextSetAsyncForThread	@1986
	TFE_ContextSetServerDef	@1987
	TFE_ContextSetThreadLocalDevicePlacementPolicy	@1988
	TFE_ContextStartStep	@1989
	TFE_CreateContextFromSession	@1990
	TFE_DeleteContext	@1991
	TFE_DeleteContextOptions	@1992
	TFE_DeleteOp	@1993
	TFE_DeleteTensorDebugInfo	@1994
	TFE_DeleteTensorHandle	@1995
	TFE_DequeueNamedTensor	@1996
	TFE_DequeueNamedTensorFromCtx	@1997
	TFE_DequeueVariantTensor	@1998
	TFE_EnqueueNamedTensor	@1999
	TFE_EnqueueNamedTensorFromCtx	@2000
	TFE_EnqueueVariantTensor	@2001
	TFE_Execute	@2002
	TFE_ExecuteOpInNewThread	@2003
	TFE_ExecuteOpNotificationWaitAndDelete	@2004
	TFE_NewContext	@2005
	TFE_NewContextOptions	@2006
	TFE_NewOp	@2007
	TFE_NewTensorHandle	@2008
	TFE_NewTensorHandleFromScalar	@2009
	TFE_OpAddInput	@2010
	TFE_OpGetAttrType	@2011
	TFE_OpGetDevice	@2012
	TFE_OpNameGetAttrType	@2013
	TFE_OpSetAttrBool	@2014
	TFE_OpSetAttrBoolList	@2015
	TFE_OpSetAttrFloat	@2016
	TFE_OpSetAttrFloatList	@2017
	TFE_OpSetAttrFunction	@2018
	TFE_OpSetAttrFunctionList	@2019
	TFE_OpSetAttrFunctionName	@2020
	TFE_OpSetAttrInt	@2021
	TFE_OpSetAttrIntList	@2022
	TFE_OpSetAttrShape	@2023
	TFE_OpSetAttrShapeList	@2024
	TFE_OpSetAttrString	@2025
	TFE_OpSetAttrStringList	@2026
	TFE_OpSetAttrTensor	@2027
	TFE_OpSetAttrType	@2028
	TFE_OpSetAttrTypeList	@2029
	TFE_OpSetDevice	@2030
	TFE_OpSetXLACompilation	@2031
	TFE_TensorDebugInfoOnDeviceDim	@2032
	TFE_TensorDebugInfoOnDeviceNumDims	@2033
	TFE_TensorHandleBackingDeviceName	@2034
	TFE_TensorHandleCopySharingTensor	@2035
	TFE_TensorHandleCopyToDevice	@2036
	TFE_TensorHandleDataType	@2037
	TFE_TensorHandleDeviceName	@2038
	TFE_TensorHandleDim	@2039
	TFE_TensorHandleNumDims	@2040
	TFE_TensorHandleNumElements	@2041
	TFE_TensorHandlePrintDebugString	@2042
	TFE_TensorHandleResolve	@2043
	TFE_TensorHandleTensorDebugInfo	@2044
	TF_AbortWhile	@2045
	TF_AddControlInput	@2046
	TF_AddGradients	@2047
	TF_AddGradientsWithPrefix	@2048
	TF_AddInput	@2049
	TF_AddInputList	@2050
	TF_AllocateTensor	@2051
	TF_ApiDefMapGet	@2052
	TF_ApiDefMapPut	@2053
	TF_AttrBuilderCheckCanRunOnDevice	@2054
	TF_AttrBuilderSetType	@2055
	TF_AttrBuilderSetTypeList	@2056
	TF_CloseDeprecatedSession	@2057
	TF_CloseSession	@2058
	TF_ColocateWith	@2059
	TF_CreateConfig	@2060
	TF_CreateRunOptions	@2061
	TF_DataTypeSize	@2062
	TF_DeleteApiDefMap	@2063
	TF_DeleteAttrBuilder	@2064
	TF_DeleteBuffer	@2065
	TF_DeleteDeprecatedSession	@2066
	TF_DeleteDeviceList	@2067
	TF_DeleteFunction	@2068
	TF_DeleteGraph	@2069
	TF_DeleteImportGraphDefOptions	@2070
	TF_DeleteImportGraphDefResults	@2071
	TF_DeleteLibraryHandle	@2072
	TF_DeletePRunHandle	@2073
	TF_DeleteServer	@2074
	TF_DeleteSession	@2075
	TF_DeleteSessionOptions	@2076
	TF_DeleteStatus	@2077
	TF_DeleteTensor	@2078
	TF_DeprecatedSessionListDevices	@2079
	TF_DequeueNamedTensor	@2080
	TF_DeviceListCount	@2081
	TF_DeviceListIncarnation	@2082
	TF_DeviceListMemoryBytes	@2083
	TF_DeviceListName	@2084
	TF_DeviceListType	@2085
	TF_Dim	@2086
	TF_EnableXLACompilation	@2087
	TF_EnqueueNamedTensor	@2088
	TF_ExtendGraph	@2089
	TF_FinishOperation	@2090
	TF_FinishWhile	@2091
	TF_FunctionGetAttrValueProto	@2092
	TF_FunctionImportFunctionDef	@2093
	TF_FunctionName	@2094
	TF_FunctionSetAttrValueProto	@2095
	TF_FunctionToFunctionDef	@2096
	TF_GetAllOpList	@2097
	TF_GetAllRegisteredKernels	@2098
	TF_GetBuffer	@2099
	TF_GetCode	@2100
	TF_GetNumberAttrForOpListInput	@2101
	TF_GetOpList	@2102
	TF_GetRegisteredKernelsForOp	@2103
	TF_GraphCopyFunction	@2104
	TF_GraphDebugString	@2105
	TF_GraphGetFunctions	@2106
	TF_GraphGetOpDef	@2107
	TF_GraphGetTensorNumDims	@2108
	TF_GraphGetTensorShape	@2109
	TF_GraphImportGraphDef	@2110
	TF_GraphImportGraphDefWithResults	@2111
	TF_GraphImportGraphDefWithReturnOutputs	@2112
	TF_GraphNextOperation	@2113
	TF_GraphNumFunctions	@2114
	TF_GraphOperationByName	@2115
	TF_GraphSetTensorShape	@2116
	TF_GraphToFunction	@2117
	TF_GraphToGraphDef	@2118
	TF_GraphVersions	@2119
	TF_ImportGraphDefOptionsAddControlDependency	@2120
	TF_ImportGraphDefOptionsAddInputMapping	@2121
	TF_ImportGraphDefOptionsAddReturnOperation	@2122
	TF_ImportGraphDefOptionsAddReturnOutput	@2123
	TF_ImportGraphDefOptionsNumReturnOperations	@2124
	TF_ImportGraphDefOptionsNumReturnOutputs	@2125
	TF_ImportGraphDefOptionsRemapControlDependency	@2126
	TF_ImportGraphDefOptionsSetDefaultDevice	@2127
	TF_ImportGraphDefOptionsSetPrefix	@2128
	TF_ImportGraphDefOptionsSetUniquifyNames	@2129
	TF_ImportGraphDefOptionsSetUniquifyPrefix	@2130
	TF_ImportGraphDefResultsMissingUnusedInputMappings	@2131
	TF_ImportGraphDefResultsReturnOperations	@2132
	TF_ImportGraphDefResultsReturnOutputs	@2133
	TF_InitMain	@2134
	TF_LoadLibrary	@2135
	TF_LoadSessionFromSavedModel	@2136
	TF_MakeFakeIteratorGetNextWithDatasets	@2137
	TF_MakeFileBasedIteratorGetNextWithDatasets	@2138
	TF_MakeInternalErrorStatus	@2139
	TF_Message	@2140
	TF_NewApiDefMap	@2141
	TF_NewAttrBuilder	@2142
	TF_NewBuffer	@2143
	TF_NewBufferFromString	@2144
	TF_NewDeprecatedSession	@2145
	TF_NewGraph	@2146
	TF_NewImportGraphDefOptions	@2147
	TF_NewOperation	@2148
	TF_NewServer	@2149
	TF_NewSession	@2150
	TF_NewSessionOptions	@2151
	TF_NewStatus	@2152
	TF_NewTensor	@2153
	TF_NewWhile	@2154
	TF_NumDims	@2155
	TF_OpIsStateful	@2156
	TF_OperationDevice	@2157
	TF_OperationGetAttrBool	@2158
	TF_OperationGetAttrBoolList	@2159
	TF_OperationGetAttrFloat	@2160
	TF_OperationGetAttrFloatList	@2161
	TF_OperationGetAttrInt	@2162
	TF_OperationGetAttrIntList	@2163
	TF_OperationGetAttrMetadata	@2164
	TF_OperationGetAttrShape	@2165
	TF_OperationGetAttrShapeList	@2166
	TF_OperationGetAttrString	@2167
	TF_OperationGetAttrStringList	@2168
	TF_OperationGetAttrTensor	@2169
	TF_OperationGetAttrTensorList	@2170
	TF_OperationGetAttrTensorShapeProto	@2171
	TF_OperationGetAttrTensorShapeProtoList	@2172
	TF_OperationGetAttrType	@2173
	TF_OperationGetAttrTypeList	@2174
	TF_OperationGetAttrValueProto	@2175
	TF_OperationGetControlInputs	@2176
	TF_OperationGetControlOutputs	@2177
	TF_OperationInput	@2178
	TF_OperationInputListLength	@2179
	TF_OperationInputType	@2180
	TF_OperationName	@2181
	TF_OperationNumControlInputs	@2182
	TF_OperationNumControlOutputs	@2183
	TF_OperationNumInputs	@2184
	TF_OperationNumOutputs	@2185
	TF_OperationOpType	@2186
	TF_OperationOutputConsumers	@2187
	TF_OperationOutputListLength	@2188
	TF_OperationOutputNumConsumers	@2189
	TF_OperationOutputType	@2190
	TF_OperationToNodeDef	@2191
	TF_PRun	@2192
	TF_PRunSetup	@2193
	TF_PickUnusedPortOrDie	@2194
	TF_Reset	@2195
	TF_Run	@2196
	TF_ServerJoin	@2197
	TF_ServerStart	@2198
	TF_ServerStop	@2199
	TF_ServerTarget	@2200
	TF_SessionListDevices	@2201
	TF_SessionPRun	@2202
	TF_SessionPRunSetup	@2203
	TF_SessionRun	@2204
	TF_SetAttrBool	@2205
	TF_SetAttrBoolList	@2206
	TF_SetAttrFloat	@2207
	TF_SetAttrFloatList	@2208
	TF_SetAttrFuncName	@2209
	TF_SetAttrInt	@2210
	TF_SetAttrIntList	@2211
	TF_SetAttrShape	@2212
	TF_SetAttrShapeList	@2213
	TF_SetAttrString	@2214
	TF_SetAttrStringList	@2215
	TF_SetAttrTensor	@2216
	TF_SetAttrTensorList	@2217
	TF_SetAttrTensorShapeProto	@2218
	TF_SetAttrTensorShapeProtoList	@2219
	TF_SetAttrType	@2220
	TF_SetAttrTypeList	@2221
	TF_SetAttrValueProto	@2222
	TF_SetConfig	@2223
	TF_SetDevice	@2224
	TF_SetStatus	@2225
	TF_SetTarget	@2226
	TF_StringDecode	@2227
	TF_StringEncode	@2228
	TF_StringEncodedSize	@2229
	TF_TensorByteSize	@2230
	TF_TensorData	@2231
	TF_TensorMaybeMove	@2232
	TF_TensorType	@2233
	TF_TryEvaluateConstant	@2234
	TF_Version	@2235
	T_CString_int64ToString_62	@2236
	T_CString_integerToString_62	@2237
	T_CString_stringToInteger_62	@2238
	T_CString_toLowerCase_62	@2239
	T_CString_toUpperCase_62	@2240
	UCNV_FROM_U_CALLBACK_ESCAPE_62	@2241
	UCNV_FROM_U_CALLBACK_SKIP_62	@2242
	UCNV_FROM_U_CALLBACK_STOP_62	@2243
	UCNV_FROM_U_CALLBACK_SUBSTITUTE_62	@2244
	UCNV_TO_U_CALLBACK_ESCAPE_62	@2245
	UCNV_TO_U_CALLBACK_SKIP_62	@2246
	UCNV_TO_U_CALLBACK_STOP_62	@2247
	UCNV_TO_U_CALLBACK_SUBSTITUTE_62	@2248
	icudt62_dat	@2249
	locale_getKeywordsStart_62	@2250
	res_countArrayItems_62	@2251
	res_getAlias_62	@2252
	res_getArrayItem_62	@2253
	res_getBinary_62	@2254
	res_getIntVector_62	@2255
	res_getPublicType_62	@2256
	res_getResource_62	@2257
	res_getString_62	@2258
	res_getTableItemByIndex_62	@2259
	res_getTableItemByKey_62	@2260
	res_read_62	@2261
	u_UCharsToChars_62	@2262
	u_austrcpy_62	@2263
	u_austrncpy_62	@2264
	u_caseInsensitivePrefixMatch_62	@2265
	u_catclose_62	@2266
	u_catgets_62	@2267
	u_catopen_62	@2268
	u_charAge_62	@2269
	u_charDigitValue_62	@2270
	u_charDirection_62	@2271
	u_charFromName_62	@2272
	u_charMirror_62	@2273
	u_charName_62	@2274
	u_charType_62	@2275
	u_charsToUChars_62	@2276
	u_cleanup_62	@2277
	u_countChar32_62	@2278
	u_digit_62	@2279
	u_enumCharNames_62	@2280
	u_enumCharTypes_62	@2281
	u_errorName_62	@2282
	u_flushDefaultConverter_62	@2283
	u_foldCase_62	@2284
	u_forDigit_62	@2285
	u_getBidiPairedBracket_62	@2286
	u_getCombiningClass_62	@2287
	u_getDataDirectory_62	@2288
	u_getDataVersion_62	@2289
	u_getDefaultConverter_62	@2290
	u_getFC_NFKC_Closure_62	@2291
	u_getISOComment_62	@2292
	u_getIntPropertyMaxValue_62	@2293
	u_getIntPropertyMinValue_62	@2294
	u_getIntPropertyValue_62	@2295
	u_getNumericValue_62	@2296
	u_getPropertyEnum_62	@2297
	u_getPropertyName_62	@2298
	u_getPropertyValueEnum_62	@2299
	u_getPropertyValueName_62	@2300
	u_getTimeZoneFilesDirectory_62	@2301
	u_getUnicodeVersion_62	@2302
	u_getVersion_62	@2303
	u_hasBinaryProperty_62	@2304
	u_init_62	@2305
	u_isIDIgnorable_62	@2306
	u_isIDPart_62	@2307
	u_isIDStart_62	@2308
	u_isISOControl_62	@2309
	u_isJavaIDPart_62	@2310
	u_isJavaIDStart_62	@2311
	u_isJavaSpaceChar_62	@2312
	u_isMirrored_62	@2313
	u_isUAlphabetic_62	@2314
	u_isULowercase_62	@2315
	u_isUUppercase_62	@2316
	u_isUWhiteSpace_62	@2317
	u_isWhitespace_62	@2318
	u_isalnum_62	@2319
	u_isalpha_62	@2320
	u_isbase_62	@2321
	u_isblank_62	@2322
	u_iscntrl_62	@2323
	u_isdefined_62	@2324
	u_isdigit_62	@2325
	u_isgraph_62	@2326
	u_islower_62	@2327
	u_isprint_62	@2328
	u_ispunct_62	@2329
	u_isspace_62	@2330
	u_istitle_62	@2331
	u_isupper_62	@2332
	u_isxdigit_62	@2333
	u_memcasecmp_62	@2334
	u_memchr32_62	@2335
	u_memchr_62	@2336
	u_memcmpCodePointOrder_62	@2337
	u_memcmp_62	@2338
	u_memcpy_62	@2339
	u_memmove_62	@2340
	u_memrchr32_62	@2341
	u_memrchr_62	@2342
	u_memset_62	@2343
	u_releaseDefaultConverter_62	@2344
	u_setAtomicIncDecFunctions_62	@2345
	u_setDataDirectory_62	@2346
	u_setMemoryFunctions_62	@2347
	u_setMutexFunctions_62	@2348
	u_setTimeZoneFilesDirectory_62	@2349
	u_shapeArabic_62	@2350
	u_strCaseCompare_62	@2351
	u_strCompareIter_62	@2352
	u_strCompare_62	@2353
	u_strFindFirst_62	@2354
	u_strFindLast_62	@2355
	u_strFoldCase_62	@2356
	u_strFromJavaModifiedUTF8WithSub_62	@2357
	u_strFromUTF32WithSub_62	@2358
	u_strFromUTF32_62	@2359
	u_strFromUTF8Lenient_62	@2360
	u_strFromUTF8WithSub_62	@2361
	u_strFromUTF8_62	@2362
	u_strFromWCS_62	@2363
	u_strHasMoreChar32Than_62	@2364
	u_strToJavaModifiedUTF8_62	@2365
	u_strToLower_62	@2366
	u_strToTitle_62	@2367
	u_strToUTF32WithSub_62	@2368
	u_strToUTF32_62	@2369
	u_strToUTF8WithSub_62	@2370
	u_strToUTF8_62	@2371
	u_strToUpper_62	@2372
	u_strToWCS_62	@2373
	u_strcasecmp_62	@2374
	u_strcat_62	@2375
	u_strchr32_62	@2376
	u_strchr_62	@2377
	u_strcmpCodePointOrder_62	@2378
	u_strcmp_62	@2379
	u_strcpy_62	@2380
	u_strcspn_62	@2381
	u_strlen_62	@2382
	u_strncasecmp_62	@2383
	u_strncat_62	@2384
	u_strncmpCodePointOrder_62	@2385
	u_strncmp_62	@2386
	u_strncpy_62	@2387
	u_strpbrk_62	@2388
	u_strrchr32_62	@2389
	u_strrchr_62	@2390
	u_strrstr_62	@2391
	u_strspn_62	@2392
	u_strstr_62	@2393
	u_strtok_r_62	@2394
	u_terminateChars_62	@2395
	u_terminateUChar32s_62	@2396
	u_terminateUChars_62	@2397
	u_terminateWChars_62	@2398
	u_tolower_62	@2399
	u_totitle_62	@2400
	u_toupper_62	@2401
	u_uastrcpy_62	@2402
	u_uastrncpy_62	@2403
	u_unescapeAt_62	@2404
	u_unescape_62	@2405
	u_versionFromString_62	@2406
	u_versionFromUString_62	@2407
	u_versionToString_62	@2408
	ubidi_close_62	@2409
	ubidi_countParagraphs_62	@2410
	ubidi_countRuns_62	@2411
	ubidi_getBaseDirection_62	@2412
	ubidi_getClassCallback_62	@2413
	ubidi_getClass_62	@2414
	ubidi_getCustomizedClass_62	@2415
	ubidi_getDirection_62	@2416
	ubidi_getLength_62	@2417
	ubidi_getLevelAt_62	@2418
	ubidi_getLevels_62	@2419
	ubidi_getLogicalIndex_62	@2420
	ubidi_getLogicalMap_62	@2421
	ubidi_getLogicalRun_62	@2422
	ubidi_getParaLevel_62	@2423
	ubidi_getParagraphByIndex_62	@2424
	ubidi_getParagraph_62	@2425
	ubidi_getProcessedLength_62	@2426
	ubidi_getReorderingMode_62	@2427
	ubidi_getReorderingOptions_62	@2428
	ubidi_getResultLength_62	@2429
	ubidi_getText_62	@2430
	ubidi_getVisualIndex_62	@2431
	ubidi_getVisualMap_62	@2432
	ubidi_getVisualRun_62	@2433
	ubidi_invertMap_62	@2434
	ubidi_isInverse_62	@2435
	ubidi_isOrderParagraphsLTR_62	@2436
	ubidi_openSized_62	@2437
	ubidi_open_62	@2438
	ubidi_orderParagraphsLTR_62	@2439
	ubidi_reorderLogical_62	@2440
	ubidi_reorderVisual_62	@2441
	ubidi_setClassCallback_62	@2442
	ubidi_setContext_62	@2443
	ubidi_setInverse_62	@2444
	ubidi_setLine_62	@2445
	ubidi_setPara_62	@2446
	ubidi_setReorderingMode_62	@2447
	ubidi_setReorderingOptions_62	@2448
	ubidi_writeReordered_62	@2449
	ubidi_writeReverse_62	@2450
	ubiditransform_close_62	@2451
	ubiditransform_open_62	@2452
	ubiditransform_transform_62	@2453
	ublock_getCode_62	@2454
	ubrk_close_62	@2455
	ubrk_countAvailable_62	@2456
	ubrk_current_62	@2457
	ubrk_first_62	@2458
	ubrk_following_62	@2459
	ubrk_getAvailable_62	@2460
	ubrk_getBinaryRules_62	@2461
	ubrk_getLocaleByType_62	@2462
	ubrk_getRuleStatusVec_62	@2463
	ubrk_getRuleStatus_62	@2464
	ubrk_isBoundary_62	@2465
	ubrk_last_62	@2466
	ubrk_next_62	@2467
	ubrk_openBinaryRules_62	@2468
	ubrk_openRules_62	@2469
	ubrk_open_62	@2470
	ubrk_preceding_62	@2471
	ubrk_previous_62	@2472
	ubrk_refreshUText_62	@2473
	ubrk_safeClone_62	@2474
	ubrk_setText_62	@2475
	ubrk_setUText_62	@2476
	ubrk_swap_62	@2477
	ucache_compareKeys_62	@2478
	ucache_deleteKey_62	@2479
	ucache_hashKeys_62	@2480
	ucase_fold_62	@2481
	ucase_getTypeOrIgnorable_62	@2482
	ucase_getType_62	@2483
	ucase_isCaseSensitive_62	@2484
	ucase_isSoftDotted_62	@2485
	ucase_toFullFolding_62	@2486
	ucase_toFullLower_62	@2487
	ucase_toFullTitle_62	@2488
	ucase_toFullUpper_62	@2489
	ucase_tolower_62	@2490
	ucase_totitle_62	@2491
	ucase_toupper_62	@2492
	ucasemap_close_62	@2493
	ucasemap_getBreakIterator_62	@2494
	ucasemap_getLocale_62	@2495
	ucasemap_getOptions_62	@2496
	ucasemap_open_62	@2497
	ucasemap_setBreakIterator_62	@2498
	ucasemap_setLocale_62	@2499
	ucasemap_setOptions_62	@2500
	ucasemap_toTitle_62	@2501
	ucasemap_utf8FoldCase_62	@2502
	ucasemap_utf8ToLower_62	@2503
	ucasemap_utf8ToTitle_62	@2504
	ucasemap_utf8ToUpper_62	@2505
	uchar_swapNames_62	@2506
	ucln_cleanupOne_62	@2507
	ucln_registerCleanup_62	@2508
	ucnv_cbFromUWriteBytes_62	@2509
	ucnv_cbFromUWriteSub_62	@2510
	ucnv_cbFromUWriteUChars_62	@2511
	ucnv_cbToUWriteSub_62	@2512
	ucnv_cbToUWriteUChars_62	@2513
	ucnv_close_62	@2514
	ucnv_compareNames_62	@2515
	ucnv_convertEx_62	@2516
	ucnv_convert_62	@2517
	ucnv_countAliases_62	@2518
	ucnv_countAvailable_62	@2519
	ucnv_countStandards_62	@2520
	ucnv_createConverter_62	@2521
	ucnv_detectUnicodeSignature_62	@2522
	ucnv_enableCleanup_62	@2523
	ucnv_fixFileSeparator_62	@2524
	ucnv_flushCache_62	@2525
	ucnv_fromAlgorithmic_62	@2526
	ucnv_fromUChars_62	@2527
	ucnv_fromUCountPending_62	@2528
	ucnv_fromUnicode_62	@2529
	ucnv_getAlias_62	@2530
	ucnv_getAliases_62	@2531
	ucnv_getAvailableName_62	@2532
	ucnv_getCCSID_62	@2533
	ucnv_getCanonicalName_62	@2534
	ucnv_getDefaultName_62	@2535
	ucnv_getDisplayName_62	@2536
	ucnv_getFromUCallBack_62	@2537
	ucnv_getInvalidChars_62	@2538
	ucnv_getInvalidUChars_62	@2539
	ucnv_getMaxCharSize_62	@2540
	ucnv_getMinCharSize_62	@2541
	ucnv_getName_62	@2542
	ucnv_getNextUChar_62	@2543
	ucnv_getPlatform_62	@2544
	ucnv_getStandardName_62	@2545
	ucnv_getStandard_62	@2546
	ucnv_getStarters_62	@2547
	ucnv_getSubstChars_62	@2548
	ucnv_getToUCallBack_62	@2549
	ucnv_getType_62	@2550
	ucnv_getUnicodeSet_62	@2551
	ucnv_io_countKnownConverters_62	@2552
	ucnv_io_getConverterName_62	@2553
	ucnv_io_stripASCIIForCompare_62	@2554
	ucnv_io_stripEBCDICForCompare_62	@2555
	ucnv_isAmbiguous_62	@2556
	ucnv_isFixedWidth_62	@2557
	ucnv_load_62	@2558
	ucnv_openAllNames_62	@2559
	ucnv_openCCSID_62	@2560
	ucnv_openPackage_62	@2561
	ucnv_openStandardNames_62	@2562
	ucnv_openU_62	@2563
	ucnv_open_62	@2564
	ucnv_resetFromUnicode_62	@2565
	ucnv_resetToUnicode_62	@2566
	ucnv_reset_62	@2567
	ucnv_safeClone_62	@2568
	ucnv_setDefaultName_62	@2569
	ucnv_setFallback_62	@2570
	ucnv_setFromUCallBack_62	@2571
	ucnv_setSubstChars_62	@2572
	ucnv_setSubstString_62	@2573
	ucnv_setToUCallBack_62	@2574
	ucnv_swapAliases_62	@2575
	ucnv_swap_62	@2576
	ucnv_toAlgorithmic_62	@2577
	ucnv_toUChars_62	@2578
	ucnv_toUCountPending_62	@2579
	ucnv_toUnicode_62	@2580
	ucnv_unload_62	@2581
	ucnv_usesFallback_62	@2582
	ucnvsel_close_62	@2583
	ucnvsel_openFromSerialized_62	@2584
	ucnvsel_open_62	@2585
	ucnvsel_selectForString_62	@2586
	ucnvsel_selectForUTF8_62	@2587
	ucnvsel_serialize_62	@2588
	ucol_looksLikeCollationBinary_62	@2589
	ucol_swapInverseUCA_62	@2590
	ucol_swap_62	@2591
	ucurr_countCurrencies_62	@2592
	ucurr_forLocaleAndDate_62	@2593
	ucurr_forLocale_62	@2594
	ucurr_getDefaultFractionDigitsForUsage_62	@2595
	ucurr_getDefaultFractionDigits_62	@2596
	ucurr_getKeywordValuesForLocale_62	@2597
	ucurr_getName_62	@2598
	ucurr_getNumericCode_62	@2599
	ucurr_getPluralName_62	@2600
	ucurr_getRoundingIncrementForUsage_62	@2601
	ucurr_getRoundingIncrement_62	@2602
	ucurr_isAvailable_62	@2603
	ucurr_openISOCurrencies_62	@2604
	ucurr_register_62	@2605
	ucurr_unregister_62	@2606
	udata_closeSwapper_62	@2607
	udata_close_62	@2608
	udata_getInfo_62	@2609
	udata_getLength_62	@2610
	udata_getMemory_62	@2611
	udata_getRawMemory_62	@2612
	udata_openChoice_62	@2613
	udata_openSwapperForInputData_62	@2614
	udata_openSwapper_62	@2615
	udata_open_62	@2616
	udata_printError_62	@2617
	udata_readInt16_62	@2618
	udata_readInt32_62	@2619
	udata_setAppData_62	@2620
	udata_setCommonData_62	@2621
	udata_setFileAccess_62	@2622
	udata_swapDataHeader_62	@2623
	udata_swapInvStringBlock_62	@2624
	udict_swap_62	@2625
	uenum_close_62	@2626
	uenum_count_62	@2627
	uenum_nextDefault_62	@2628
	uenum_next_62	@2629
	uenum_openCharStringsEnumeration_62	@2630
	uenum_openFromStringEnumeration_62	@2631
	uenum_openUCharStringsEnumeration_62	@2632
	uenum_reset_62	@2633
	uenum_unextDefault_62	@2634
	uenum_unext_62	@2635
	uhash_close_62	@2636
	uhash_compareCaselessUnicodeString_62	@2637
	uhash_compareChars_62	@2638
	uhash_compareIChars_62	@2639
	uhash_compareLong_62	@2640
	uhash_compareUChars_62	@2641
	uhash_compareUnicodeString_62	@2642
	uhash_count_62	@2643
	uhash_deleteHashtable_62	@2644
	uhash_equals_62	@2645
	uhash_find_62	@2646
	uhash_get_62	@2647
	uhash_geti_62	@2648
	uhash_hashCaselessUnicodeString_62	@2649
	uhash_hashChars_62	@2650
	uhash_hashIChars_62	@2651
	uhash_hashLong_62	@2652
	uhash_hashUChars_62	@2653
	uhash_hashUnicodeString_62	@2654
	uhash_iget_62	@2655
	uhash_igeti_62	@2656
	uhash_initSize_62	@2657
	uhash_init_62	@2658
	uhash_iput_62	@2659
	uhash_iputi_62	@2660
	uhash_iremove_62	@2661
	uhash_iremovei_62	@2662
	uhash_nextElement_62	@2663
	uhash_openSize_62	@2664
	uhash_open_62	@2665
	uhash_put_62	@2666
	uhash_puti_62	@2667
	uhash_removeAll_62	@2668
	uhash_removeElement_62	@2669
	uhash_remove_62	@2670
	uhash_removei_62	@2671
	uhash_setKeyComparator_62	@2672
	uhash_setKeyDeleter_62	@2673
	uhash_setKeyHasher_62	@2674
	uhash_setResizePolicy_62	@2675
	uhash_setValueComparator_62	@2676
	uhash_setValueDeleter_62	@2677
	uidna_IDNToASCII_62	@2678
	uidna_IDNToUnicode_62	@2679
	uidna_close_62	@2680
	uidna_compare_62	@2681
	uidna_labelToASCII_62	@2682
	uidna_labelToASCII_UTF8_62	@2683
	uidna_labelToUnicodeUTF8_62	@2684
	uidna_labelToUnicode_62	@2685
	uidna_nameToASCII_62	@2686
	uidna_nameToASCII_UTF8_62	@2687
	uidna_nameToUnicodeUTF8_62	@2688
	uidna_nameToUnicode_62	@2689
	uidna_openUTS46_62	@2690
	uidna_toASCII_62	@2691
	uidna_toUnicode_62	@2692
	uiter_current32_62	@2693
	uiter_getState_62	@2694
	uiter_next32_62	@2695
	uiter_previous32_62	@2696
	uiter_setCharacterIterator_62	@2697
	uiter_setReplaceable_62	@2698
	uiter_setState_62	@2699
	uiter_setString_62	@2700
	uiter_setUTF16BE_62	@2701
	uiter_setUTF8_62	@2702
	uldn_close_62	@2703
	uldn_getContext_62	@2704
	uldn_getDialectHandling_62	@2705
	uldn_getLocale_62	@2706
	uldn_keyDisplayName_62	@2707
	uldn_keyValueDisplayName_62	@2708
	uldn_languageDisplayName_62	@2709
	uldn_localeDisplayName_62	@2710
	uldn_openForContext_62	@2711
	uldn_open_62	@2712
	uldn_regionDisplayName_62	@2713
	uldn_scriptCodeDisplayName_62	@2714
	uldn_scriptDisplayName_62	@2715
	uldn_variantDisplayName_62	@2716
	ulist_addItemBeginList_62	@2717
	ulist_addItemEndList_62	@2718
	ulist_close_keyword_values_iterator_62	@2719
	ulist_containsString_62	@2720
	ulist_count_keyword_values_62	@2721
	ulist_createEmptyList_62	@2722
	ulist_deleteList_62	@2723
	ulist_getListFromEnum_62	@2724
	ulist_getListSize_62	@2725
	ulist_getNext_62	@2726
	ulist_next_keyword_value_62	@2727
	ulist_removeString_62	@2728
	ulist_resetList_62	@2729
	ulist_reset_keyword_values_iterator_62	@2730
	ulistfmt_close_62	@2731
	ulistfmt_format_62	@2732
	ulistfmt_open_62	@2733
	uloc_acceptLanguageFromHTTP_62	@2734
	uloc_acceptLanguage_62	@2735
	uloc_addLikelySubtags_62	@2736
	uloc_canonicalize_62	@2737
	uloc_countAvailable_62	@2738
	uloc_forLanguageTag_62	@2739
	uloc_getAvailable_62	@2740
	uloc_getBaseName_62	@2741
	uloc_getCharacterOrientation_62	@2742
	uloc_getCountry_62	@2743
	uloc_getDefault_62	@2744
	uloc_getDisplayCountry_62	@2745
	uloc_getDisplayKeywordValue_62	@2746
	uloc_getDisplayKeyword_62	@2747
	uloc_getDisplayLanguage_62	@2748
	uloc_getDisplayName_62	@2749
	uloc_getDisplayScriptInContext_62	@2750
	uloc_getDisplayScript_62	@2751
	uloc_getDisplayVariant_62	@2752
	uloc_getISO3Country_62	@2753
	uloc_getISO3Language_62	@2754
	uloc_getISOCountries_62	@2755
	uloc_getISOLanguages_62	@2756
	uloc_getKeywordValue_62	@2757
	uloc_getLCID_62	@2758
	uloc_getLanguage_62	@2759
	uloc_getLineOrientation_62	@2760
	uloc_getLocaleForLCID_62	@2761
	uloc_getName_62	@2762
	uloc_getParent_62	@2763
	uloc_getScript_62	@2764
	uloc_getTableStringWithFallback_62	@2765
	uloc_getVariant_62	@2766
	uloc_isRightToLeft_62	@2767
	uloc_minimizeSubtags_62	@2768
	uloc_openKeywordList_62	@2769
	uloc_openKeywords_62	@2770
	uloc_setDefault_62	@2771
	uloc_setKeywordValue_62	@2772
	uloc_toLanguageTag_62	@2773
	uloc_toLegacyKey_62	@2774
	uloc_toLegacyType_62	@2775
	uloc_toUnicodeLocaleKey_62	@2776
	uloc_toUnicodeLocaleType_62	@2777
	ulocimp_getRegionForSupplementalData_62	@2778
	umtx_condBroadcast_62	@2779
	umtx_condSignal_62	@2780
	umtx_condWait_62	@2781
	umtx_lock_62	@2782
	umtx_unlock_62	@2783
	unorm2_append_62	@2784
	unorm2_close_62	@2785
	unorm2_composePair_62	@2786
	unorm2_getCombiningClass_62	@2787
	unorm2_getDecomposition_62	@2788
	unorm2_getInstance_62	@2789
	unorm2_getNFCInstance_62	@2790
	unorm2_getNFDInstance_62	@2791
	unorm2_getNFKCCasefoldInstance_62	@2792
	unorm2_getNFKCInstance_62	@2793
	unorm2_getNFKDInstance_62	@2794
	unorm2_getRawDecomposition_62	@2795
	unorm2_hasBoundaryAfter_62	@2796
	unorm2_hasBoundaryBefore_62	@2797
	unorm2_isInert_62	@2798
	unorm2_isNormalized_62	@2799
	unorm2_normalizeSecondAndAppend_62	@2800
	unorm2_normalize_62	@2801
	unorm2_openFiltered_62	@2802
	unorm2_quickCheck_62	@2803
	unorm2_spanQuickCheckYes_62	@2804
	unorm2_swap_62	@2805
	unorm_compare_62	@2806
	unorm_concatenate_62	@2807
	unorm_isNormalizedWithOptions_62	@2808
	unorm_isNormalized_62	@2809
	unorm_next_62	@2810
	unorm_normalize_62	@2811
	unorm_previous_62	@2812
	unorm_quickCheckWithOptions_62	@2813
	unorm_quickCheck_62	@2814
	uprv_add32_overflow_62	@2815
	uprv_aestrncpy_62	@2816
	uprv_asciitolower_62	@2817
	uprv_calloc_62	@2818
	uprv_ceil_62	@2819
	uprv_compareASCIIPropertyNames_62	@2820
	uprv_compareEBCDICPropertyNames_62	@2821
	uprv_compareInvEbcdicAsAscii_62	@2822
	uprv_convertToLCIDPlatform_62	@2823
	uprv_convertToLCID_62	@2824
	uprv_convertToPosix_62	@2825
	uprv_deleteUObject_62	@2826
	uprv_dl_close_62	@2827
	uprv_dl_open_62	@2828
	uprv_dlsym_func_62	@2829
	uprv_eastrncpy_62	@2830
	uprv_ebcdicFromAscii_62	@2831
	uprv_ebcdicToLowercaseAscii_62	@2832
	uprv_ebcdictolower_62	@2833
	uprv_fabs_62	@2834
	uprv_floor_62	@2835
	uprv_fmax_62	@2836
	uprv_fmin_62	@2837
	uprv_fmod_62	@2838
	uprv_free_62	@2839
	uprv_getCharNameCharacters_62	@2840
	uprv_getDefaultCodepage_62	@2841
	uprv_getDefaultLocaleID_62	@2842
	uprv_getICUData_conversion	@2843
	uprv_getInfinity_62	@2844
	uprv_getMaxCharNameLength_62	@2845
	uprv_getNaN_62	@2846
	uprv_getRawUTCtime_62	@2847
	uprv_getStaticCurrencyName_62	@2848
	uprv_getUTCtime_62	@2849
	uprv_int32Comparator_62	@2850
	uprv_isASCIILetter_62	@2851
	uprv_isInfinite_62	@2852
	uprv_isInvariantString_62	@2853
	uprv_isInvariantUString_62	@2854
	uprv_isInvariantUnicodeString	@2855
	uprv_isNaN_62	@2856
	uprv_isNegativeInfinity_62	@2857
	uprv_isPositiveInfinity_62	@2858
	uprv_itou_62	@2859
	uprv_log_62	@2860
	uprv_malloc_62	@2861
	uprv_maxMantissa_62	@2862
	uprv_max_62	@2863
	uprv_maximumPtr_62	@2864
	uprv_min_62	@2865
	uprv_modf_62	@2866
	uprv_mul32_overflow_62	@2867
	uprv_parseCurrency_62	@2868
	uprv_pathIsAbsolute_62	@2869
	uprv_pow10_62	@2870
	uprv_pow_62	@2871
	uprv_realloc_62	@2872
	uprv_round_62	@2873
	uprv_sortArray_62	@2874
	uprv_stableBinarySearch_62	@2875
	uprv_strdup_62	@2876
	uprv_stricmp_62	@2877
	uprv_strndup_62	@2878
	uprv_strnicmp_62	@2879
	uprv_syntaxError_62	@2880
	uprv_timezone_62	@2881
	uprv_toupper_62	@2882
	uprv_trunc_62	@2883
	uprv_tzname_62	@2884
	uprv_tzname_clear_cache_62	@2885
	uprv_tzset_62	@2886
	uprv_uint16Comparator_62	@2887
	uprv_uint32Comparator_62	@2888
	upvec_cloneArray_62	@2889
	upvec_close_62	@2890
	upvec_compactToUTrie2Handler_62	@2891
	upvec_compactToUTrie2WithRowIndexes_62	@2892
	upvec_compact_62	@2893
	upvec_getArray_62	@2894
	upvec_getRow_62	@2895
	upvec_getValue_62	@2896
	upvec_open_62	@2897
	upvec_setValue_62	@2898
	ures_close_62	@2899
	ures_countArrayItems_62	@2900
	ures_findResource_62	@2901
	ures_findSubResource_62	@2902
	ures_getAllItemsWithFallback_62	@2903
	ures_getBinary_62	@2904
	ures_getByIndex_62	@2905
	ures_getByKeyWithFallback_62	@2906
	ures_getByKey_62	@2907
	ures_getFunctionalEquivalent_62	@2908
	ures_getIntVector_62	@2909
	ures_getInt_62	@2910
	ures_getKey_62	@2911
	ures_getKeywordValues_62	@2912
	ures_getLocaleByType_62	@2913
	ures_getLocaleInternal_62	@2914
	ures_getLocale_62	@2915
	ures_getNextResource_62	@2916
	ures_getNextString_62	@2917
	ures_getSize_62	@2918
	ures_getStringByIndex_62	@2919
	ures_getStringByKeyWithFallback_62	@2920
	ures_getStringByKey_62	@2921
	ures_getString_62	@2922
	ures_getType_62	@2923
	ures_getUInt_62	@2924
	ures_getUTF8StringByIndex_62	@2925
	ures_getUTF8StringByKey_62	@2926
	ures_getUTF8String_62	@2927
	ures_getVersionByKey_62	@2928
	ures_getVersionNumberInternal_62	@2929
	ures_getVersionNumber_62	@2930
	ures_getVersion_62	@2931
	ures_hasNext_62	@2932
	ures_initStackObject_62	@2933
	ures_openAvailableLocales_62	@2934
	ures_openDirect_62	@2935
	ures_openFillIn_62	@2936
	ures_openNoDefault_62	@2937
	ures_openU_62	@2938
	ures_open_62	@2939
	ures_resetIterator_62	@2940
	ures_swap_62	@2941
	uscript_breaksBetweenLetters_62	@2942
	uscript_closeRun_62	@2943
	uscript_getCode_62	@2944
	uscript_getName_62	@2945
	uscript_getSampleString_62	@2946
	uscript_getScriptExtensions_62	@2947
	uscript_getScript_62	@2948
	uscript_getShortName_62	@2949
	uscript_getUsage_62	@2950
	uscript_hasScript_62	@2951
	uscript_isCased_62	@2952
	uscript_isRightToLeft_62	@2953
	uscript_nextRun_62	@2954
	uscript_openRun_62	@2955
	uscript_resetRun_62	@2956
	uscript_setRunText_62	@2957
	uset_addAllCodePoints_62	@2958
	uset_addAll_62	@2959
	uset_addRange_62	@2960
	uset_addString_62	@2961
	uset_add_62	@2962
	uset_applyIntPropertyValue_62	@2963
	uset_applyPattern_62	@2964
	uset_applyPropertyAlias_62	@2965
	uset_charAt_62	@2966
	uset_clear_62	@2967
	uset_cloneAsThawed_62	@2968
	uset_clone_62	@2969
	uset_closeOver_62	@2970
	uset_close_62	@2971
	uset_compact_62	@2972
	uset_complementAll_62	@2973
	uset_complement_62	@2974
	uset_containsAllCodePoints_62	@2975
	uset_containsAll_62	@2976
	uset_containsNone_62	@2977
	uset_containsRange_62	@2978
	uset_containsSome_62	@2979
	uset_containsString_62	@2980
	uset_contains_62	@2981
	uset_equals_62	@2982
	uset_freeze_62	@2983
	uset_getItemCount_62	@2984
	uset_getItem_62	@2985
	uset_getSerializedRangeCount_62	@2986
	uset_getSerializedRange_62	@2987
	uset_getSerializedSet_62	@2988
	uset_indexOf_62	@2989
	uset_isEmpty_62	@2990
	uset_isFrozen_62	@2991
	uset_openEmpty_62	@2992
	uset_openPatternOptions_62	@2993
	uset_openPattern_62	@2994
	uset_open_62	@2995
	uset_removeAllStrings_62	@2996
	uset_removeAll_62	@2997
	uset_removeRange_62	@2998
	uset_removeString_62	@2999
	uset_remove_62	@3000
	uset_resemblesPattern_62	@3001
	uset_retainAll_62	@3002
	uset_retain_62	@3003
	uset_serialize_62	@3004
	uset_serializedContains_62	@3005
	uset_setSerializedToOne_62	@3006
	uset_set_62	@3007
	uset_size_62	@3008
	uset_spanBackUTF8_62	@3009
	uset_spanBack_62	@3010
	uset_spanUTF8_62	@3011
	uset_span_62	@3012
	uset_toPattern_62	@3013
	usprep_close_62	@3014
	usprep_openByType_62	@3015
	usprep_open_62	@3016
	usprep_prepare_62	@3017
	usprep_swap_62	@3018
	ustr_hashCharsN_62	@3019
	ustr_hashICharsN_62	@3020
	ustr_hashUCharsN_62	@3021
	utext_char32At_62	@3022
	utext_clone_62	@3023
	utext_close_62	@3024
	utext_copy_62	@3025
	utext_current32_62	@3026
	utext_equals_62	@3027
	utext_extract_62	@3028
	utext_freeze_62	@3029
	utext_getNativeIndex_62	@3030
	utext_getPreviousNativeIndex_62	@3031
	utext_hasMetaData_62	@3032
	utext_isLengthExpensive_62	@3033
	utext_isWritable_62	@3034
	utext_moveIndex32_62	@3035
	utext_nativeLength_62	@3036
	utext_next32From_62	@3037
	utext_next32_62	@3038
	utext_openCharacterIterator_62	@3039
	utext_openConstUnicodeString_62	@3040
	utext_openReplaceable_62	@3041
	utext_openUChars_62	@3042
	utext_openUTF8_62	@3043
	utext_openUnicodeString_62	@3044
	utext_previous32From_62	@3045
	utext_previous32_62	@3046
	utext_replace_62	@3047
	utext_setNativeIndex_62	@3048
	utext_setup_62	@3049
	utf8_appendCharSafeBody_62	@3050
	utf8_back1SafeBody_62	@3051
	utf8_countTrailBytes_62	@3052
	utf8_nextCharSafeBody_62	@3053
	utf8_prevCharSafeBody_62	@3054
	utrace_data_62	@3055
	utrace_entry_62	@3056
	utrace_exit_62	@3057
	utrace_format_62	@3058
	utrace_functionName_62	@3059
	utrace_getFunctions_62	@3060
	utrace_getLevel_62	@3061
	utrace_setFunctions_62	@3062
	utrace_setLevel_62	@3063
	utrace_vformat_62	@3064
	utrie2_cloneAsThawed_62	@3065
	utrie2_clone_62	@3066
	utrie2_close_62	@3067
	utrie2_enumForLeadSurrogate_62	@3068
	utrie2_enum_62	@3069
	utrie2_freeze_62	@3070
	utrie2_fromUTrie_62	@3071
	utrie2_get32FromLeadSurrogateCodeUnit_62	@3072
	utrie2_get32_62	@3073
	utrie2_getVersion_62	@3074
	utrie2_internalU8NextIndex_62	@3075
	utrie2_internalU8PrevIndex_62	@3076
	utrie2_isFrozen_62	@3077
	utrie2_openDummy_62	@3078
	utrie2_openFromSerialized_62	@3079
	utrie2_open_62	@3080
	utrie2_serialize_62	@3081
	utrie2_set32ForLeadSurrogateCodeUnit_62	@3082
	utrie2_set32_62	@3083
	utrie2_setRange32_62	@3084
	utrie2_swapAnyVersion_62	@3085
	utrie2_swap_62	@3086
	utrie_clone_62	@3087
	utrie_close_62	@3088
	utrie_defaultGetFoldingOffset_62	@3089
	utrie_enum_62	@3090
	utrie_get32_62	@3091
	utrie_getData_62	@3092
	utrie_open_62	@3093
	utrie_serialize_62	@3094
	utrie_set32_62	@3095
	utrie_setRange32_62	@3096
	utrie_swap_62	@3097
	utrie_unserializeDummy_62	@3098
	utrie_unserialize_62	@3099
